Archive member included because of file (symbol)

contiki-cc2538dk.a(mqtt.o)    mqtt-demo.co (mqtt_disconnect)
contiki-cc2538dk.a(leds.o)    mqtt-demo.co (leds_off)
contiki-cc2538dk.a(leds-arch.o)
                              contiki-cc2538dk.a(leds.o) (leds_arch_init)
contiki-cc2538dk.a(contiki-main.o)
                              obj_cc2538dk/startup-gcc.o (main)
contiki-cc2538dk.a(sensors.o)
                              mqtt-demo.co (sensors_event)
contiki-cc2538dk.a(smartrf-sensors)
                              contiki-cc2538dk.a(sensors.o) (sensors)
contiki-cc2538dk.a(button-sensor.o)
                              contiki-cc2538dk.a(contiki-main.o) (button_sensor_init)
contiki-cc2538dk.a(als-sensor.o)
                              contiki-cc2538dk.a(smartrf-sensors) (als_sensor)
contiki-cc2538dk.a(clock.o)   contiki-cc2538dk.a(contiki-main.o) (clock_init)
contiki-cc2538dk.a(rtimer-arch.o)
                              contiki-cc2538dk.a(clock.o) (rtimer_arch_now)
contiki-cc2538dk.a(uart.o)    mqtt-demo.co (uart_set_input)
contiki-cc2538dk.a(watchdog.o)
                              contiki-cc2538dk.a(contiki-main.o) (watchdog_init)
contiki-cc2538dk.a(nvic.o)    contiki-cc2538dk.a(contiki-main.o) (nvic_init)
contiki-cc2538dk.a(cpu.o)     contiki-cc2538dk.a(contiki-main.o) (cpu_cpsie)
contiki-cc2538dk.a(sys-ctrl.o)
                              contiki-cc2538dk.a(contiki-main.o) (sys_ctrl_init)
contiki-cc2538dk.a(gpio.o)    contiki-cc2538dk.a(button-sensor.o) (gpio_register_callback)
contiki-cc2538dk.a(ioc.o)     contiki-cc2538dk.a(contiki-main.o) (ioc_init)
contiki-cc2538dk.a(adc.o)     contiki-cc2538dk.a(contiki-main.o) (adc_init)
contiki-cc2538dk.a(crypto.o)  obj_cc2538dk/startup-gcc.o (crypto_isr)
contiki-cc2538dk.a(cc2538-rf.o)
                              obj_cc2538dk/startup-gcc.o (cc2538_rf_err_isr)
contiki-cc2538dk.a(udma.o)    contiki-cc2538dk.a(cc2538-rf.o) (udma_set_channel_src)
contiki-cc2538dk.a(lpm.o)     contiki-cc2538dk.a(uart.o) (lpm_register_peripheral)
contiki-cc2538dk.a(dbg.o)     mqtt-demo.co (puts)
contiki-cc2538dk.a(ieee-addr.o)
                              contiki-cc2538dk.a(contiki-main.o) (ieee_addr_cpy_to)
contiki-cc2538dk.a(cc2538-temp-sen)
                              contiki-cc2538dk.a(smartrf-sensors) (cc2538_temp_sensor)
contiki-cc2538dk.a(vdd3-sensor.o)
                              mqtt-demo.co (vdd3_sensor)
contiki-cc2538dk.a(dbg-printf.o)
                              mqtt-demo.co (printf)
contiki-cc2538dk.a(dbg-snprintf.o)
                              mqtt-demo.co (snprintf)
contiki-cc2538dk.a(strformat.o)
                              contiki-cc2538dk.a(dbg-printf.o) (format_str_v)
contiki-cc2538dk.a(autostart.o)
                              contiki-cc2538dk.a(contiki-main.o) (autostart_start)
contiki-cc2538dk.a(ctimer.o)  contiki-cc2538dk.a(mqtt.o) (ctimer_stop)
contiki-cc2538dk.a(energest.o)
                              contiki-cc2538dk.a(contiki-main.o) (energest_init)
contiki-cc2538dk.a(etimer.o)  mqtt-demo.co (etimer_expired)
contiki-cc2538dk.a(process.o)
                              contiki-cc2538dk.a(mqtt.o) (process_alloc_event)
contiki-cc2538dk.a(rtimer.o)  contiki-cc2538dk.a(rtimer-arch.o) (rtimer_run_next)
contiki-cc2538dk.a(timer.o)   contiki-cc2538dk.a(etimer.o) (timer_reset)
contiki-cc2538dk.a(serial-line.o)
                              mqtt-demo.co (serial_line_event_message)
contiki-cc2538dk.a(list.o)    contiki-cc2538dk.a(mqtt.o) (list_init)
contiki-cc2538dk.a(random.o)  contiki-cc2538dk.a(contiki-main.o) (random_init)
contiki-cc2538dk.a(ringbuf.o)
                              contiki-cc2538dk.a(serial-line.o) (ringbuf_init)
contiki-cc2538dk.a(sicslowpan.o)
                              mqtt-demo.co (sicslowpan_get_last_rssi)
contiki-cc2538dk.a(uip6.o)    contiki-cc2538dk.a(sicslowpan.o) (uip_aligned_buf)
contiki-cc2538dk.a(uip-ds6.o)
                              contiki-cc2538dk.a(uip6.o) (uip_ds6_if)
contiki-cc2538dk.a(uip-ds6-nbr.o)
                              contiki-cc2538dk.a(sicslowpan.o) (uip_ds6_link_neighbor_callback)
contiki-cc2538dk.a(uip-ds6-route.o)
                              mqtt-demo.co (uip_ds6_defrt_choose)
contiki-cc2538dk.a(uip-icmp6.o)
                              contiki-cc2538dk.a(uip6.o) (uip_icmp6_input)
contiki-cc2538dk.a(uip-nd6.o)
                              contiki-cc2538dk.a(uip6.o) (uip_nd6_init)
contiki-cc2538dk.a(tcpip.o)   contiki-cc2538dk.a(sicslowpan.o) (tcpip_set_outputfunc)
contiki-cc2538dk.a(tcp-socket.o)
                              contiki-cc2538dk.a(mqtt.o) (tcp_socket_close)
contiki-cc2538dk.a(uip-debug.o)
                              contiki-cc2538dk.a(uip-ds6-route.o) (uip_debug_ipaddr_print)
contiki-cc2538dk.a(uiplib.o)  contiki-cc2538dk.a(mqtt.o) (uiplib_ip6addrconv)
contiki-cc2538dk.a(linkaddr.o)
                              contiki-cc2538dk.a(sicslowpan.o) (linkaddr_cmp)
contiki-cc2538dk.a(nbr-table.o)
                              contiki-cc2538dk.a(uip-ds6-nbr.o) (nbr_table_register)
contiki-cc2538dk.a(netstack.o)
                              contiki-cc2538dk.a(contiki-main.o) (netstack_init)
contiki-cc2538dk.a(packetbuf.o)
                              contiki-cc2538dk.a(cc2538-rf.o) (packetbuf_set_datalen)
contiki-cc2538dk.a(queuebuf.o)
                              contiki-cc2538dk.a(sicslowpan.o) (queuebuf_to_packetbuf)
contiki-cc2538dk.a(contikimac.o)
                              contiki-cc2538dk.a(contiki-main.o) (contikimac_driver)
contiki-cc2538dk.a(csma.o)    contiki-cc2538dk.a(contiki-main.o) (csma_driver)
contiki-cc2538dk.a(framer-802154.o)
                              contiki-cc2538dk.a(sicslowpan.o) (framer_802154)
contiki-cc2538dk.a(framer.o)  contiki-cc2538dk.a(framer-802154.o) (framer_canonical_create_and_secure)
contiki-cc2538dk.a(mac.o)     contiki-cc2538dk.a(contikimac.o) (mac_call_sent_callback)
contiki-cc2538dk.a(mac-sequence.o)
                              contiki-cc2538dk.a(contikimac.o) (mac_sequence_is_duplicate)
contiki-cc2538dk.a(nullsec.o)
                              contiki-cc2538dk.a(sicslowpan.o) (nullsec_driver)
contiki-cc2538dk.a(netstack-aes.o)
                              contiki-cc2538dk.a(contiki-main.o) (netstack_aes_set_key)
contiki-cc2538dk.a(rpl.o)     contiki-cc2538dk.a(tcpip.o) (rpl_init)
contiki-cc2538dk.a(rpl-dag.o)
                              contiki-cc2538dk.a(rpl.o) (default_instance)
contiki-cc2538dk.a(rpl-icmp6.o)
                              contiki-cc2538dk.a(rpl.o) (rpl_icmp6_register_handlers)
contiki-cc2538dk.a(rpl-timers.o)
                              contiki-cc2538dk.a(rpl-dag.o) (rpl_schedule_probing)
contiki-cc2538dk.a(rpl-mrhof.o)
                              contiki-cc2538dk.a(rpl.o) (rpl_mrhof)
contiki-cc2538dk.a(rpl-ext-header.)
                              contiki-cc2538dk.a(uip-icmp6.o) (rpl_invert_header)
contiki-cc2538dk.a(oled-arch.o)
                              contiki-cc2538dk.a(contiki-main.o) (OLED_Init)
contiki-cc2538dk.a(oled.o)    contiki-cc2538dk.a(contiki-main.o) (OLED_Init1)
contiki-cc2538dk.a(stimer.o)  contiki-cc2538dk.a(uip-ds6-nbr.o) (stimer_remaining)
contiki-cc2538dk.a(memb.o)    contiki-cc2538dk.a(uip-ds6-route.o) (memb_alloc)
contiki-cc2538dk.a(frame802154.o)
                              contiki-cc2538dk.a(framer-802154.o) (frame802154_parse)
contiki-cc2538dk.a(aes-ccm.o)
                              contiki-cc2538dk.a(netstack-aes.o) (aes_ccm_decrypt)
/home/user/CodeSourcery/Sourcery_G++_Lite/bin/../lib/gcc/arm-none-eabi/4.3.2/thumb2/libgcc.a(_aeabi_uldivmod.o)
                              contiki-cc2538dk.a(strformat.o) (__aeabi_uldivmod)
/home/user/CodeSourcery/Sourcery_G++_Lite/bin/../lib/gcc/arm-none-eabi/4.3.2/thumb2/libgcc.a(bpabi.o)
                              /home/user/CodeSourcery/Sourcery_G++_Lite/bin/../lib/gcc/arm-none-eabi/4.3.2/thumb2/libgcc.a(_aeabi_uldivmod.o) (__gnu_uldivmod_helper)
/home/user/CodeSourcery/Sourcery_G++_Lite/bin/../lib/gcc/arm-none-eabi/4.3.2/thumb2/libgcc.a(_dvmd_tls.o)
                              /home/user/CodeSourcery/Sourcery_G++_Lite/bin/../lib/gcc/arm-none-eabi/4.3.2/thumb2/libgcc.a(_aeabi_uldivmod.o) (__aeabi_ldiv0)
/home/user/CodeSourcery/Sourcery_G++_Lite/bin/../lib/gcc/arm-none-eabi/4.3.2/thumb2/libgcc.a(_divdi3.o)
                              /home/user/CodeSourcery/Sourcery_G++_Lite/bin/../lib/gcc/arm-none-eabi/4.3.2/thumb2/libgcc.a(bpabi.o) (__divdi3)
/home/user/CodeSourcery/Sourcery_G++_Lite/bin/../lib/gcc/arm-none-eabi/4.3.2/thumb2/libgcc.a(_udivdi3.o)
                              /home/user/CodeSourcery/Sourcery_G++_Lite/bin/../lib/gcc/arm-none-eabi/4.3.2/thumb2/libgcc.a(bpabi.o) (__udivdi3)
/home/user/CodeSourcery/Sourcery_G++_Lite/bin/../lib/gcc/arm-none-eabi/4.3.2/thumb2/libgcc.a(_udivsi3.o)
                              /home/user/CodeSourcery/Sourcery_G++_Lite/bin/../lib/gcc/arm-none-eabi/4.3.2/thumb2/libgcc.a(_divdi3.o) (__aeabi_uidiv)
/home/user/CodeSourcery/Sourcery_G++_Lite/bin/../lib/gcc/arm-none-eabi/4.3.2/thumb2/libgcc.a(_clz.o)
                              /home/user/CodeSourcery/Sourcery_G++_Lite/bin/../lib/gcc/arm-none-eabi/4.3.2/thumb2/libgcc.a(_divdi3.o) (__clz_tab)
/home/user/CodeSourcery/Sourcery_G++_Lite/bin/../lib/gcc/arm-none-eabi/4.3.2/../../../../arm-none-eabi/lib/thumb2/libc.a(lib_a-memcmp.o)
                              mqtt-demo.co (memcmp)
/home/user/CodeSourcery/Sourcery_G++_Lite/bin/../lib/gcc/arm-none-eabi/4.3.2/../../../../arm-none-eabi/lib/thumb2/libc.a(lib_a-memcpy.o)
                              mqtt-demo.co (memcpy)
/home/user/CodeSourcery/Sourcery_G++_Lite/bin/../lib/gcc/arm-none-eabi/4.3.2/../../../../arm-none-eabi/lib/thumb2/libc.a(lib_a-memmove.o)
                              contiki-cc2538dk.a(sicslowpan.o) (memmove)
/home/user/CodeSourcery/Sourcery_G++_Lite/bin/../lib/gcc/arm-none-eabi/4.3.2/../../../../arm-none-eabi/lib/thumb2/libc.a(lib_a-memset.o)
                              mqtt-demo.co (memset)
/home/user/CodeSourcery/Sourcery_G++_Lite/bin/../lib/gcc/arm-none-eabi/4.3.2/../../../../arm-none-eabi/lib/thumb2/libc.a(lib_a-strlen.o)
                              mqtt-demo.co (strlen)
/home/user/CodeSourcery/Sourcery_G++_Lite/bin/../lib/gcc/arm-none-eabi/4.3.2/../../../../arm-none-eabi/lib/thumb2/libc.a(lib_a-strncasecmp.o)
                              mqtt-demo.co (strncasecmp)
/home/user/CodeSourcery/Sourcery_G++_Lite/bin/../lib/gcc/arm-none-eabi/4.3.2/../../../../arm-none-eabi/lib/thumb2/libc.a(lib_a-strncmp.o)
                              mqtt-demo.co (strncmp)
/home/user/CodeSourcery/Sourcery_G++_Lite/bin/../lib/gcc/arm-none-eabi/4.3.2/../../../../arm-none-eabi/lib/thumb2/libc.a(lib_a-ctype_.o)
                              /home/user/CodeSourcery/Sourcery_G++_Lite/bin/../lib/gcc/arm-none-eabi/4.3.2/../../../../arm-none-eabi/lib/thumb2/libc.a(lib_a-strncasecmp.o) (__ctype_ptr__)

Allocating common symbols
Common symbol       size              file

uip_ds6_timer_ra    0x8               contiki-cc2538dk.a(uip-ds6.o)
uip_ds6_if          0xf8              contiki-cc2538dk.a(uip-ds6.o)
uip_ds6_netif_addr_list_offset
                    0x1               contiki-cc2538dk.a(uip-ds6.o)
uip_len             0x2               contiki-cc2538dk.a(uip6.o)
mqtt_update_event   0x1               contiki-cc2538dk.a(mqtt.o)
uip_ds6_addr_size   0x1               contiki-cc2538dk.a(uip-ds6.o)
uip_sappdata        0x4               contiki-cc2538dk.a(uip6.o)
packetbuf_addrs     0x10              contiki-cc2538dk.a(packetbuf.o)
uip_acc32           0x4               contiki-cc2538dk.a(uip6.o)
uip_ds6_prefix_list
                    0x60              contiki-cc2538dk.a(uip-ds6.o)
frag_sender         0x8               contiki-cc2538dk.a(sicslowpan.o)
uip_lladdr          0x8               contiki-cc2538dk.a(uip6.o)
uip_aligned_buf     0x514             contiki-cc2538dk.a(uip6.o)
uip_flags           0x1               contiki-cc2538dk.a(uip6.o)
uip_ds6_timer_periodic
                    0x10              contiki-cc2538dk.a(uip-ds6.o)
uip_next_hdr        0x4               contiki-cc2538dk.a(uip6.o)
linkaddr_node_addr  0x8               contiki-cc2538dk.a(linkaddr.o)
default_instance    0x4               contiki-cc2538dk.a(rpl-dag.o)
uip_udp_conn        0x4               contiki-cc2538dk.a(uip6.o)
packetbuf_attrs     0x1e              contiki-cc2538dk.a(packetbuf.o)
instance_table      0x124             contiki-cc2538dk.a(rpl-dag.o)
RS485_Rece          0x18              mqtt-demo.co
uip_appdata         0x4               contiki-cc2538dk.a(uip6.o)
uip_conn            0x4               contiki-cc2538dk.a(uip6.o)
tcpip_event         0x1               contiki-cc2538dk.a(tcpip.o)
uip_conns           0x1e0             contiki-cc2538dk.a(uip6.o)
uip_icmp6_conns     0x8               contiki-cc2538dk.a(uip6.o)
uip_listenports     0x10              contiki-cc2538dk.a(uip6.o)
sensors_flags       0x9               contiki-cc2538dk.a(smartrf-sensors)
serial_line_event_message
                    0x1               contiki-cc2538dk.a(serial-line.o)
sensors_event       0x1               contiki-cc2538dk.a(sensors.o)
tcpip_icmp6_event   0x1               contiki-cc2538dk.a(tcpip.o)
uip_slen            0x2               contiki-cc2538dk.a(uip6.o)
uip_udp_conns       0x140             contiki-cc2538dk.a(uip6.o)

Discarded input sections

 .text          0x00000000        0x0 obj_cc2538dk/startup-gcc.o
 .data          0x00000000        0x0 obj_cc2538dk/startup-gcc.o
 .bss           0x00000000        0x0 obj_cc2538dk/startup-gcc.o
 .text          0x00000000        0x0 mqtt-demo.co
 .data          0x00000000        0x0 mqtt-demo.co
 .bss           0x00000000        0x0 mqtt-demo.co
 .text.uart0_send
                0x00000000        0x0 mqtt-demo.co
 COMMON         0x00000000        0x0 mqtt-demo.co
 .text          0x00000000        0x0 contiki-cc2538dk.a(mqtt.o)
 .data          0x00000000        0x0 contiki-cc2538dk.a(mqtt.o)
 .bss           0x00000000        0x0 contiki-cc2538dk.a(mqtt.o)
 .text.mqtt_set_last_will
                0x00000000        0x0 contiki-cc2538dk.a(mqtt.o)
 .text.mqtt_unsubscribe
                0x00000000        0x0 contiki-cc2538dk.a(mqtt.o)
 .text          0x00000000        0x0 contiki-cc2538dk.a(leds.o)
 .data          0x00000000        0x0 contiki-cc2538dk.a(leds.o)
 .bss           0x00000000        0x0 contiki-cc2538dk.a(leds.o)
 .text.leds_toggle
                0x00000000        0x0 contiki-cc2538dk.a(leds.o)
 .text.leds_set
                0x00000000        0x0 contiki-cc2538dk.a(leds.o)
 .text.leds_get
                0x00000000        0x0 contiki-cc2538dk.a(leds.o)
 .text.leds_blink
                0x00000000        0x0 contiki-cc2538dk.a(leds.o)
 .text          0x00000000        0x0 contiki-cc2538dk.a(leds-arch.o)
 .data          0x00000000        0x0 contiki-cc2538dk.a(leds-arch.o)
 .bss           0x00000000        0x0 contiki-cc2538dk.a(leds-arch.o)
 .text.leds_arch_get
                0x00000000        0x0 contiki-cc2538dk.a(leds-arch.o)
 .text          0x00000000        0x0 contiki-cc2538dk.a(contiki-main.o)
 .data          0x00000000        0x0 contiki-cc2538dk.a(contiki-main.o)
 .bss           0x00000000        0x0 contiki-cc2538dk.a(contiki-main.o)
 .text          0x00000000        0x0 contiki-cc2538dk.a(sensors.o)
 .data          0x00000000        0x0 contiki-cc2538dk.a(sensors.o)
 .bss           0x00000000        0x0 contiki-cc2538dk.a(sensors.o)
 .text.sensors_first
                0x00000000        0x0 contiki-cc2538dk.a(sensors.o)
 .text.sensors_next
                0x00000000        0x0 contiki-cc2538dk.a(sensors.o)
 .text.sensors_find
                0x00000000        0x0 contiki-cc2538dk.a(sensors.o)
 .text          0x00000000        0x0 contiki-cc2538dk.a(smartrf-sensors)
 .data          0x00000000        0x0 contiki-cc2538dk.a(smartrf-sensors)
 .bss           0x00000000        0x0 contiki-cc2538dk.a(smartrf-sensors)
 .text          0x00000000        0x0 contiki-cc2538dk.a(button-sensor.o)
 .data          0x00000000        0x0 contiki-cc2538dk.a(button-sensor.o)
 .bss           0x00000000        0x0 contiki-cc2538dk.a(button-sensor.o)
 .text          0x00000000        0x0 contiki-cc2538dk.a(als-sensor.o)
 .data          0x00000000        0x0 contiki-cc2538dk.a(als-sensor.o)
 .bss           0x00000000        0x0 contiki-cc2538dk.a(als-sensor.o)
 .text          0x00000000        0x0 contiki-cc2538dk.a(clock.o)
 .data          0x00000000        0x0 contiki-cc2538dk.a(clock.o)
 .bss           0x00000000        0x0 contiki-cc2538dk.a(clock.o)
 .text.clock_set_seconds
                0x00000000        0x0 contiki-cc2538dk.a(clock.o)
 .text.clock_wait
                0x00000000        0x0 contiki-cc2538dk.a(clock.o)
 .text.clock_delay
                0x00000000        0x0 contiki-cc2538dk.a(clock.o)
 .text          0x00000000        0x0 contiki-cc2538dk.a(rtimer-arch.o)
 .data          0x00000000        0x0 contiki-cc2538dk.a(rtimer-arch.o)
 .bss           0x00000000        0x0 contiki-cc2538dk.a(rtimer-arch.o)
 .text          0x00000000        0x0 contiki-cc2538dk.a(uart.o)
 .data          0x00000000        0x0 contiki-cc2538dk.a(uart.o)
 .bss           0x00000000        0x0 contiki-cc2538dk.a(uart.o)
 .text          0x00000000        0x0 contiki-cc2538dk.a(watchdog.o)
 .data          0x00000000        0x0 contiki-cc2538dk.a(watchdog.o)
 .bss           0x00000000        0x0 contiki-cc2538dk.a(watchdog.o)
 .text.watchdog_reboot
                0x00000000        0x0 contiki-cc2538dk.a(watchdog.o)
 .text          0x00000000        0x0 contiki-cc2538dk.a(nvic.o)
 .data          0x00000000        0x0 contiki-cc2538dk.a(nvic.o)
 .bss           0x00000000        0x0 contiki-cc2538dk.a(nvic.o)
 .text.nvic_interrupt_en_restore
                0x00000000        0x0 contiki-cc2538dk.a(nvic.o)
 .text.nvic_interrupt_en_save
                0x00000000        0x0 contiki-cc2538dk.a(nvic.o)
 .text.nvic_interrupt_pend
                0x00000000        0x0 contiki-cc2538dk.a(nvic.o)
 .text          0x00000000        0x0 contiki-cc2538dk.a(cpu.o)
 .data          0x00000000        0x0 contiki-cc2538dk.a(cpu.o)
 .bss           0x00000000        0x0 contiki-cc2538dk.a(cpu.o)
 .text          0x00000000        0x0 contiki-cc2538dk.a(sys-ctrl.o)
 .data          0x00000000        0x0 contiki-cc2538dk.a(sys-ctrl.o)
 .bss           0x00000000        0x0 contiki-cc2538dk.a(sys-ctrl.o)
 .text.sys_ctrl_reset
                0x00000000        0x0 contiki-cc2538dk.a(sys-ctrl.o)
 .text.sys_ctrl_get_sys_clock
                0x00000000        0x0 contiki-cc2538dk.a(sys-ctrl.o)
 .text.sys_ctrl_get_io_clock
                0x00000000        0x0 contiki-cc2538dk.a(sys-ctrl.o)
 .text          0x00000000        0x0 contiki-cc2538dk.a(gpio.o)
 .data          0x00000000        0x0 contiki-cc2538dk.a(gpio.o)
 .bss           0x00000000        0x0 contiki-cc2538dk.a(gpio.o)
 .text          0x00000000        0x0 contiki-cc2538dk.a(ioc.o)
 .data          0x00000000        0x0 contiki-cc2538dk.a(ioc.o)
 .bss           0x00000000        0x0 contiki-cc2538dk.a(ioc.o)
 .text          0x00000000        0x0 contiki-cc2538dk.a(adc.o)
 .data          0x00000000        0x0 contiki-cc2538dk.a(adc.o)
 .bss           0x00000000        0x0 contiki-cc2538dk.a(adc.o)
 .text          0x00000000        0x0 contiki-cc2538dk.a(crypto.o)
 .data          0x00000000        0x0 contiki-cc2538dk.a(crypto.o)
 .bss           0x00000000        0x0 contiki-cc2538dk.a(crypto.o)
 .text.permit_pm1
                0x00000000        0x0 contiki-cc2538dk.a(crypto.o)
 .text.crypto_enable
                0x00000000        0x0 contiki-cc2538dk.a(crypto.o)
 .text.crypto_disable
                0x00000000        0x0 contiki-cc2538dk.a(crypto.o)
 .text.crypto_register_process_notification
                0x00000000        0x0 contiki-cc2538dk.a(crypto.o)
 .text.crypto_init
                0x00000000        0x0 contiki-cc2538dk.a(crypto.o)
 .text          0x00000000        0x0 contiki-cc2538dk.a(cc2538-rf.o)
 .data          0x00000000        0x0 contiki-cc2538dk.a(cc2538-rf.o)
 .bss           0x00000000        0x0 contiki-cc2538dk.a(cc2538-rf.o)
 .text.cc2538_rf_set_promiscous_mode
                0x00000000        0x0 contiki-cc2538dk.a(cc2538-rf.o)
 .text          0x00000000        0x0 contiki-cc2538dk.a(udma.o)
 .data          0x00000000        0x0 contiki-cc2538dk.a(udma.o)
 .bss           0x00000000        0x0 contiki-cc2538dk.a(udma.o)
 .text.udma_set_channel_assignment
                0x00000000        0x0 contiki-cc2538dk.a(udma.o)
 .text.udma_channel_disable
                0x00000000        0x0 contiki-cc2538dk.a(udma.o)
 .text.udma_channel_use_alternate
                0x00000000        0x0 contiki-cc2538dk.a(udma.o)
 .text.udma_channel_use_primary
                0x00000000        0x0 contiki-cc2538dk.a(udma.o)
 .text.udma_channel_prio_set_high
                0x00000000        0x0 contiki-cc2538dk.a(udma.o)
 .text.udma_channel_prio_set_default
                0x00000000        0x0 contiki-cc2538dk.a(udma.o)
 .text.udma_channel_use_burst
                0x00000000        0x0 contiki-cc2538dk.a(udma.o)
 .text.udma_channel_use_single
                0x00000000        0x0 contiki-cc2538dk.a(udma.o)
 .text.udma_channel_mask_clr
                0x00000000        0x0 contiki-cc2538dk.a(udma.o)
 .text          0x00000000        0x0 contiki-cc2538dk.a(lpm.o)
 .data          0x00000000        0x0 contiki-cc2538dk.a(lpm.o)
 .bss           0x00000000        0x0 contiki-cc2538dk.a(lpm.o)
 .text.lpm_set_max_pm
                0x00000000        0x0 contiki-cc2538dk.a(lpm.o)
 .text          0x00000000        0x0 contiki-cc2538dk.a(dbg.o)
 .data          0x00000000        0x0 contiki-cc2538dk.a(dbg.o)
 .bss           0x00000000        0x0 contiki-cc2538dk.a(dbg.o)
 .text          0x00000000        0x0 contiki-cc2538dk.a(ieee-addr.o)
 .data          0x00000000        0x0 contiki-cc2538dk.a(ieee-addr.o)
 .bss           0x00000000        0x0 contiki-cc2538dk.a(ieee-addr.o)
 .text          0x00000000        0x0 contiki-cc2538dk.a(cc2538-temp-sen)
 .data          0x00000000        0x0 contiki-cc2538dk.a(cc2538-temp-sen)
 .bss           0x00000000        0x0 contiki-cc2538dk.a(cc2538-temp-sen)
 .text          0x00000000        0x0 contiki-cc2538dk.a(vdd3-sensor.o)
 .data          0x00000000        0x0 contiki-cc2538dk.a(vdd3-sensor.o)
 .bss           0x00000000        0x0 contiki-cc2538dk.a(vdd3-sensor.o)
 .text          0x00000000        0x0 contiki-cc2538dk.a(dbg-printf.o)
 .data          0x00000000        0x0 contiki-cc2538dk.a(dbg-printf.o)
 .bss           0x00000000        0x0 contiki-cc2538dk.a(dbg-printf.o)
 .text          0x00000000        0x0 contiki-cc2538dk.a(dbg-snprintf.o)
 .data          0x00000000        0x0 contiki-cc2538dk.a(dbg-snprintf.o)
 .bss           0x00000000        0x0 contiki-cc2538dk.a(dbg-snprintf.o)
 .text          0x00000000        0x0 contiki-cc2538dk.a(strformat.o)
 .data          0x00000000        0x0 contiki-cc2538dk.a(strformat.o)
 .bss           0x00000000        0x0 contiki-cc2538dk.a(strformat.o)
 .text.format_str
                0x00000000        0x0 contiki-cc2538dk.a(strformat.o)
 .text          0x00000000        0x0 contiki-cc2538dk.a(autostart.o)
 .data          0x00000000        0x0 contiki-cc2538dk.a(autostart.o)
 .bss           0x00000000        0x0 contiki-cc2538dk.a(autostart.o)
 .text.autostart_exit
                0x00000000        0x0 contiki-cc2538dk.a(autostart.o)
 .text          0x00000000        0x0 contiki-cc2538dk.a(ctimer.o)
 .data          0x00000000        0x0 contiki-cc2538dk.a(ctimer.o)
 .bss           0x00000000        0x0 contiki-cc2538dk.a(ctimer.o)
 .text.ctimer_expired
                0x00000000        0x0 contiki-cc2538dk.a(ctimer.o)
 .text          0x00000000        0x0 contiki-cc2538dk.a(energest.o)
 .data          0x00000000        0x0 contiki-cc2538dk.a(energest.o)
 .bss           0x00000000        0x0 contiki-cc2538dk.a(energest.o)
 .text.energest_type_set
                0x00000000        0x0 contiki-cc2538dk.a(energest.o)
 .text.energest_type_time
                0x00000000        0x0 contiki-cc2538dk.a(energest.o)
 .text.energest_flush
                0x00000000        0x0 contiki-cc2538dk.a(energest.o)
 .text          0x00000000        0x0 contiki-cc2538dk.a(etimer.o)
 .data          0x00000000        0x0 contiki-cc2538dk.a(etimer.o)
 .bss           0x00000000        0x0 contiki-cc2538dk.a(etimer.o)
 .text.etimer_start_time
                0x00000000        0x0 contiki-cc2538dk.a(etimer.o)
 .text.etimer_next_expiration_time
                0x00000000        0x0 contiki-cc2538dk.a(etimer.o)
 .text.etimer_adjust
                0x00000000        0x0 contiki-cc2538dk.a(etimer.o)
 .text          0x00000000        0x0 contiki-cc2538dk.a(process.o)
 .data          0x00000000        0x0 contiki-cc2538dk.a(process.o)
 .bss           0x00000000        0x0 contiki-cc2538dk.a(process.o)
 .text.process_exit
                0x00000000        0x0 contiki-cc2538dk.a(process.o)
 .text          0x00000000        0x0 contiki-cc2538dk.a(rtimer.o)
 .data          0x00000000        0x0 contiki-cc2538dk.a(rtimer.o)
 .bss           0x00000000        0x0 contiki-cc2538dk.a(rtimer.o)
 .text          0x00000000        0x0 contiki-cc2538dk.a(timer.o)
 .data          0x00000000        0x0 contiki-cc2538dk.a(timer.o)
 .bss           0x00000000        0x0 contiki-cc2538dk.a(timer.o)
 .text.timer_remaining
                0x00000000        0x0 contiki-cc2538dk.a(timer.o)
 .text          0x00000000        0x0 contiki-cc2538dk.a(serial-line.o)
 .data          0x00000000        0x0 contiki-cc2538dk.a(serial-line.o)
 .bss           0x00000000        0x0 contiki-cc2538dk.a(serial-line.o)
 .text          0x00000000        0x0 contiki-cc2538dk.a(list.o)
 .data          0x00000000        0x0 contiki-cc2538dk.a(list.o)
 .bss           0x00000000        0x0 contiki-cc2538dk.a(list.o)
 .text.list_copy
                0x00000000        0x0 contiki-cc2538dk.a(list.o)
 .text.list_chop
                0x00000000        0x0 contiki-cc2538dk.a(list.o)
 .text.list_pop
                0x00000000        0x0 contiki-cc2538dk.a(list.o)
 .text.list_insert
                0x00000000        0x0 contiki-cc2538dk.a(list.o)
 .text          0x00000000        0x0 contiki-cc2538dk.a(random.o)
 .data          0x00000000        0x0 contiki-cc2538dk.a(random.o)
 .bss           0x00000000        0x0 contiki-cc2538dk.a(random.o)
 .text          0x00000000        0x0 contiki-cc2538dk.a(ringbuf.o)
 .data          0x00000000        0x0 contiki-cc2538dk.a(ringbuf.o)
 .bss           0x00000000        0x0 contiki-cc2538dk.a(ringbuf.o)
 .text.ringbuf_size
                0x00000000        0x0 contiki-cc2538dk.a(ringbuf.o)
 .text.ringbuf_elements
                0x00000000        0x0 contiki-cc2538dk.a(ringbuf.o)
 .text          0x00000000        0x0 contiki-cc2538dk.a(sicslowpan.o)
 .data          0x00000000        0x0 contiki-cc2538dk.a(sicslowpan.o)
 .bss           0x00000000        0x0 contiki-cc2538dk.a(sicslowpan.o)
 .text.rime_sniffer_add
                0x00000000        0x0 contiki-cc2538dk.a(sicslowpan.o)
 .text.rime_sniffer_remove
                0x00000000        0x0 contiki-cc2538dk.a(sicslowpan.o)
 .text          0x00000000        0x0 contiki-cc2538dk.a(uip6.o)
 .data          0x00000000        0x0 contiki-cc2538dk.a(uip6.o)
 .bss           0x00000000        0x0 contiki-cc2538dk.a(uip6.o)
 .text.uip_listen
                0x00000000        0x0 contiki-cc2538dk.a(uip6.o)
 .text.uip_ipchksum
                0x00000000        0x0 contiki-cc2538dk.a(uip6.o)
 .text.uip_chksum
                0x00000000        0x0 contiki-cc2538dk.a(uip6.o)
 .text.uip_udp_new
                0x00000000        0x0 contiki-cc2538dk.a(uip6.o)
 .text          0x00000000        0x0 contiki-cc2538dk.a(uip-ds6.o)
 .data          0x00000000        0x0 contiki-cc2538dk.a(uip-ds6.o)
 .bss           0x00000000        0x0 contiki-cc2538dk.a(uip-ds6.o)
 .text.uip_ds6_prefix_rm
                0x00000000        0x0 contiki-cc2538dk.a(uip-ds6.o)
 .text.uip_ds6_aaddr_rm
                0x00000000        0x0 contiki-cc2538dk.a(uip-ds6.o)
 .text.uip_ds6_aaddr_lookup
                0x00000000        0x0 contiki-cc2538dk.a(uip-ds6.o)
 .text.uip_ds6_aaddr_add
                0x00000000        0x0 contiki-cc2538dk.a(uip-ds6.o)
 .text.uip_ds6_prefix_lookup
                0x00000000        0x0 contiki-cc2538dk.a(uip-ds6.o)
 .bss.locaaddr  0x00000000        0x0 contiki-cc2538dk.a(uip-ds6.o)
 .text          0x00000000        0x0 contiki-cc2538dk.a(uip-ds6-nbr.o)
 .data          0x00000000        0x0 contiki-cc2538dk.a(uip-ds6-nbr.o)
 .bss           0x00000000        0x0 contiki-cc2538dk.a(uip-ds6-nbr.o)
 .text.uip_ds6_nbr_get_ipaddr
                0x00000000        0x0 contiki-cc2538dk.a(uip-ds6-nbr.o)
 .text.uip_ds6_get_least_lifetime_neighbor
                0x00000000        0x0 contiki-cc2538dk.a(uip-ds6-nbr.o)
 .text.uip_ds6_nbr_num
                0x00000000        0x0 contiki-cc2538dk.a(uip-ds6-nbr.o)
 .text          0x00000000        0x0 contiki-cc2538dk.a(uip-ds6-route.o)
 .data          0x00000000        0x0 contiki-cc2538dk.a(uip-ds6-route.o)
 .bss           0x00000000        0x0 contiki-cc2538dk.a(uip-ds6-route.o)
 .text.uip_ds6_route_num_routes
                0x00000000        0x0 contiki-cc2538dk.a(uip-ds6-route.o)
 .text.uip_ds6_notification_rm
                0x00000000        0x0 contiki-cc2538dk.a(uip-ds6-route.o)
 .text.uip_ds6_notification_add
                0x00000000        0x0 contiki-cc2538dk.a(uip-ds6-route.o)
 .text.uip_ds6_route_rm_by_nexthop
                0x00000000        0x0 contiki-cc2538dk.a(uip-ds6-route.o)
 .text          0x00000000        0x0 contiki-cc2538dk.a(uip-icmp6.o)
 .data          0x00000000        0x0 contiki-cc2538dk.a(uip-icmp6.o)
 .bss           0x00000000        0x0 contiki-cc2538dk.a(uip-icmp6.o)
 .text.uip_icmp6_echo_reply_callback_rm
                0x00000000        0x0 contiki-cc2538dk.a(uip-icmp6.o)
 .text          0x00000000        0x0 contiki-cc2538dk.a(uip-nd6.o)
 .data          0x00000000        0x0 contiki-cc2538dk.a(uip-nd6.o)
 .bss           0x00000000        0x0 contiki-cc2538dk.a(uip-nd6.o)
 .text          0x00000000        0x0 contiki-cc2538dk.a(tcpip.o)
 .data          0x00000000        0x0 contiki-cc2538dk.a(tcpip.o)
 .bss           0x00000000        0x0 contiki-cc2538dk.a(tcpip.o)
 .text.udp_attach
                0x00000000        0x0 contiki-cc2538dk.a(tcpip.o)
 .text.icmp6_new
                0x00000000        0x0 contiki-cc2538dk.a(tcpip.o)
 .text.tcpip_poll_udp
                0x00000000        0x0 contiki-cc2538dk.a(tcpip.o)
 .text.udp_new  0x00000000        0x0 contiki-cc2538dk.a(tcpip.o)
 .text.udp_broadcast_new
                0x00000000        0x0 contiki-cc2538dk.a(tcpip.o)
 .text.tcp_listen
                0x00000000        0x0 contiki-cc2538dk.a(tcpip.o)
 .bss.i.4819    0x00000000        0x0 contiki-cc2538dk.a(tcpip.o)
 .text          0x00000000        0x0 contiki-cc2538dk.a(tcp-socket.o)
 .data          0x00000000        0x0 contiki-cc2538dk.a(tcp-socket.o)
 .bss           0x00000000        0x0 contiki-cc2538dk.a(tcp-socket.o)
 .text.tcp_socket_max_sendlen
                0x00000000        0x0 contiki-cc2538dk.a(tcp-socket.o)
 .text.tcp_socket_send_str
                0x00000000        0x0 contiki-cc2538dk.a(tcp-socket.o)
 .text.tcp_socket_listen
                0x00000000        0x0 contiki-cc2538dk.a(tcp-socket.o)
 .text          0x00000000        0x0 contiki-cc2538dk.a(uip-debug.o)
 .data          0x00000000        0x0 contiki-cc2538dk.a(uip-debug.o)
 .bss           0x00000000        0x0 contiki-cc2538dk.a(uip-debug.o)
 .text.uip_debug_lladdr_print
                0x00000000        0x0 contiki-cc2538dk.a(uip-debug.o)
 .text          0x00000000        0x0 contiki-cc2538dk.a(uiplib.o)
 .data          0x00000000        0x0 contiki-cc2538dk.a(uiplib.o)
 .bss           0x00000000        0x0 contiki-cc2538dk.a(uiplib.o)
 .text.uiplib_ip4addrconv
                0x00000000        0x0 contiki-cc2538dk.a(uiplib.o)
 .text          0x00000000        0x0 contiki-cc2538dk.a(linkaddr.o)
 .data          0x00000000        0x0 contiki-cc2538dk.a(linkaddr.o)
 .bss           0x00000000        0x0 contiki-cc2538dk.a(linkaddr.o)
 .text.linkaddr_set_node_addr
                0x00000000        0x0 contiki-cc2538dk.a(linkaddr.o)
 .text          0x00000000        0x0 contiki-cc2538dk.a(nbr-table.o)
 .data          0x00000000        0x0 contiki-cc2538dk.a(nbr-table.o)
 .bss           0x00000000        0x0 contiki-cc2538dk.a(nbr-table.o)
 .text          0x00000000        0x0 contiki-cc2538dk.a(netstack.o)
 .data          0x00000000        0x0 contiki-cc2538dk.a(netstack.o)
 .bss           0x00000000        0x0 contiki-cc2538dk.a(netstack.o)
 .text          0x00000000        0x0 contiki-cc2538dk.a(packetbuf.o)
 .data          0x00000000        0x0 contiki-cc2538dk.a(packetbuf.o)
 .bss           0x00000000        0x0 contiki-cc2538dk.a(packetbuf.o)
 .text.packetbuf_clear_hdr
                0x00000000        0x0 contiki-cc2538dk.a(packetbuf.o)
 .text.packetbuf_hdr_remove
                0x00000000        0x0 contiki-cc2538dk.a(packetbuf.o)
 .text.packetbuf_copyto_hdr
                0x00000000        0x0 contiki-cc2538dk.a(packetbuf.o)
 .text          0x00000000        0x0 contiki-cc2538dk.a(queuebuf.o)
 .data          0x00000000        0x0 contiki-cc2538dk.a(queuebuf.o)
 .bss           0x00000000        0x0 contiki-cc2538dk.a(queuebuf.o)
 .text.queuebuf_datalen
                0x00000000        0x0 contiki-cc2538dk.a(queuebuf.o)
 .text.queuebuf_addr
                0x00000000        0x0 contiki-cc2538dk.a(queuebuf.o)
 .text.queuebuf_debug_print
                0x00000000        0x0 contiki-cc2538dk.a(queuebuf.o)
 .text.queuebuf_dataptr
                0x00000000        0x0 contiki-cc2538dk.a(queuebuf.o)
 .text          0x00000000        0x0 contiki-cc2538dk.a(contikimac.o)
 .data          0x00000000        0x0 contiki-cc2538dk.a(contikimac.o)
 .bss           0x00000000        0x0 contiki-cc2538dk.a(contikimac.o)
 .text.contikimac_debug_print
                0x00000000        0x0 contiki-cc2538dk.a(contikimac.o)
 .text          0x00000000        0x0 contiki-cc2538dk.a(csma.o)
 .data          0x00000000        0x0 contiki-cc2538dk.a(csma.o)
 .bss           0x00000000        0x0 contiki-cc2538dk.a(csma.o)
 .text          0x00000000        0x0 contiki-cc2538dk.a(framer-802154.o)
 .data          0x00000000        0x0 contiki-cc2538dk.a(framer-802154.o)
 .bss           0x00000000        0x0 contiki-cc2538dk.a(framer-802154.o)
 .text          0x00000000        0x0 contiki-cc2538dk.a(framer.o)
 .data          0x00000000        0x0 contiki-cc2538dk.a(framer.o)
 .bss           0x00000000        0x0 contiki-cc2538dk.a(framer.o)
 .text          0x00000000        0x0 contiki-cc2538dk.a(mac.o)
 .data          0x00000000        0x0 contiki-cc2538dk.a(mac.o)
 .bss           0x00000000        0x0 contiki-cc2538dk.a(mac.o)
 .text          0x00000000        0x0 contiki-cc2538dk.a(mac-sequence.o)
 .data          0x00000000        0x0 contiki-cc2538dk.a(mac-sequence.o)
 .bss           0x00000000        0x0 contiki-cc2538dk.a(mac-sequence.o)
 .text          0x00000000        0x0 contiki-cc2538dk.a(nullsec.o)
 .data          0x00000000        0x0 contiki-cc2538dk.a(nullsec.o)
 .bss           0x00000000        0x0 contiki-cc2538dk.a(nullsec.o)
 .text          0x00000000        0x0 contiki-cc2538dk.a(netstack-aes.o)
 .data          0x00000000        0x0 contiki-cc2538dk.a(netstack-aes.o)
 .bss           0x00000000        0x0 contiki-cc2538dk.a(netstack-aes.o)
 .text.netstack_aes_set_active
                0x00000000        0x0 contiki-cc2538dk.a(netstack-aes.o)
 .text.netstack_aes_set_master_key
                0x00000000        0x0 contiki-cc2538dk.a(netstack-aes.o)
 .text.netstack_aes_init
                0x00000000        0x0 contiki-cc2538dk.a(netstack-aes.o)
 .text.netstack_aes_verify
                0x00000000        0x0 contiki-cc2538dk.a(netstack-aes.o)
 .text.copy_packet
                0x00000000        0x0 contiki-cc2538dk.a(netstack-aes.o)
 .text.netstack_aes_decrypt
                0x00000000        0x0 contiki-cc2538dk.a(netstack-aes.o)
 .text.netstack_aes_encrypt
                0x00000000        0x0 contiki-cc2538dk.a(netstack-aes.o)
 .data.active   0x00000000        0x0 contiki-cc2538dk.a(netstack-aes.o)
 .rodata.str1.1
                0x00000000        0x0 contiki-cc2538dk.a(netstack-aes.o)
 .bss.payload_tmp
                0x00000000        0x0 contiki-cc2538dk.a(netstack-aes.o)
 .text          0x00000000        0x0 contiki-cc2538dk.a(rpl.o)
 .data          0x00000000        0x0 contiki-cc2538dk.a(rpl.o)
 .bss           0x00000000        0x0 contiki-cc2538dk.a(rpl.o)
 .text.rpl_set_mode
                0x00000000        0x0 contiki-cc2538dk.a(rpl.o)
 .text          0x00000000        0x0 contiki-cc2538dk.a(rpl-dag.o)
 .data          0x00000000        0x0 contiki-cc2538dk.a(rpl-dag.o)
 .bss           0x00000000        0x0 contiki-cc2538dk.a(rpl-dag.o)
 .text.rpl_set_default_instance
                0x00000000        0x0 contiki-cc2538dk.a(rpl-dag.o)
 .text.rpl_get_default_instance
                0x00000000        0x0 contiki-cc2538dk.a(rpl-dag.o)
 .text.rpl_get_parent_link_metric
                0x00000000        0x0 contiki-cc2538dk.a(rpl-dag.o)
 .text.rpl_get_parent_rank
                0x00000000        0x0 contiki-cc2538dk.a(rpl-dag.o)
 .text.rpl_free_dag
                0x00000000        0x0 contiki-cc2538dk.a(rpl-dag.o)
 .text.rpl_free_instance
                0x00000000        0x0 contiki-cc2538dk.a(rpl-dag.o)
 .text.rpl_set_root
                0x00000000        0x0 contiki-cc2538dk.a(rpl-dag.o)
 .text.rpl_print_neighbor_list
                0x00000000        0x0 contiki-cc2538dk.a(rpl-dag.o)
 .rodata.str1.1
                0x00000000        0x0 contiki-cc2538dk.a(rpl-dag.o)
 .text          0x00000000        0x0 contiki-cc2538dk.a(rpl-icmp6.o)
 .data          0x00000000        0x0 contiki-cc2538dk.a(rpl-icmp6.o)
 .bss           0x00000000        0x0 contiki-cc2538dk.a(rpl-icmp6.o)
 .text          0x00000000        0x0 contiki-cc2538dk.a(rpl-timers.o)
 .data          0x00000000        0x0 contiki-cc2538dk.a(rpl-timers.o)
 .bss           0x00000000        0x0 contiki-cc2538dk.a(rpl-timers.o)
 .text.rpl_cancel_dao
                0x00000000        0x0 contiki-cc2538dk.a(rpl-timers.o)
 .text.rpl_schedule_dao_immediately
                0x00000000        0x0 contiki-cc2538dk.a(rpl-timers.o)
 .text          0x00000000        0x0 contiki-cc2538dk.a(rpl-mrhof.o)
 .data          0x00000000        0x0 contiki-cc2538dk.a(rpl-mrhof.o)
 .bss           0x00000000        0x0 contiki-cc2538dk.a(rpl-mrhof.o)
 .text          0x00000000        0x0 contiki-cc2538dk.a(rpl-ext-header.)
 .data          0x00000000        0x0 contiki-cc2538dk.a(rpl-ext-header.)
 .bss           0x00000000        0x0 contiki-cc2538dk.a(rpl-ext-header.)
 .text.rpl_remove_header
                0x00000000        0x0 contiki-cc2538dk.a(rpl-ext-header.)
 .text          0x00000000        0x0 contiki-cc2538dk.a(oled-arch.o)
 .data          0x00000000        0x0 contiki-cc2538dk.a(oled-arch.o)
 .bss           0x00000000        0x0 contiki-cc2538dk.a(oled-arch.o)
 .text.OLED_WrDat
                0x00000000        0x0 contiki-cc2538dk.a(oled-arch.o)
 .text.OLED_Setpos
                0x00000000        0x0 contiki-cc2538dk.a(oled-arch.o)
 .text.OLED_Fill
                0x00000000        0x0 contiki-cc2538dk.a(oled-arch.o)
 .text.OLED_Display_On
                0x00000000        0x0 contiki-cc2538dk.a(oled-arch.o)
 .text          0x00000000        0x0 contiki-cc2538dk.a(oled.o)
 .data          0x00000000        0x0 contiki-cc2538dk.a(oled.o)
 .bss           0x00000000        0x0 contiki-cc2538dk.a(oled.o)
 .text.OLED_Setpos1
                0x00000000        0x0 contiki-cc2538dk.a(oled.o)
 .text.OLED_Display_On1
                0x00000000        0x0 contiki-cc2538dk.a(oled.o)
 .text.OLED_P6x8Str
                0x00000000        0x0 contiki-cc2538dk.a(oled.o)
 .text.OLED_P8x16Str
                0x00000000        0x0 contiki-cc2538dk.a(oled.o)
 .rodata.F8X16  0x00000000        0x0 contiki-cc2538dk.a(oled.o)
 .rodata.F6x8   0x00000000        0x0 contiki-cc2538dk.a(oled.o)
 .text          0x00000000        0x0 contiki-cc2538dk.a(stimer.o)
 .data          0x00000000        0x0 contiki-cc2538dk.a(stimer.o)
 .bss           0x00000000        0x0 contiki-cc2538dk.a(stimer.o)
 .text.stimer_reset
                0x00000000        0x0 contiki-cc2538dk.a(stimer.o)
 .text.stimer_elapsed
                0x00000000        0x0 contiki-cc2538dk.a(stimer.o)
 .text.stimer_remaining
                0x00000000        0x0 contiki-cc2538dk.a(stimer.o)
 .text.stimer_restart
                0x00000000        0x0 contiki-cc2538dk.a(stimer.o)
 .text          0x00000000        0x0 contiki-cc2538dk.a(memb.o)
 .data          0x00000000        0x0 contiki-cc2538dk.a(memb.o)
 .bss           0x00000000        0x0 contiki-cc2538dk.a(memb.o)
 .text          0x00000000        0x0 contiki-cc2538dk.a(frame802154.o)
 .data          0x00000000        0x0 contiki-cc2538dk.a(frame802154.o)
 .bss           0x00000000        0x0 contiki-cc2538dk.a(frame802154.o)
 .text          0x00000000        0x0 contiki-cc2538dk.a(aes-ccm.o)
 .data          0x00000000        0x0 contiki-cc2538dk.a(aes-ccm.o)
 .bss           0x00000000        0x0 contiki-cc2538dk.a(aes-ccm.o)
 .text.cbcmac_clear
                0x00000000        0x0 contiki-cc2538dk.a(aes-ccm.o)
 .text.ctr_mic  0x00000000        0x0 contiki-cc2538dk.a(aes-ccm.o)
 .text.ctr_next_ctr_block
                0x00000000        0x0 contiki-cc2538dk.a(aes-ccm.o)
 .text.ctr_payload
                0x00000000        0x0 contiki-cc2538dk.a(aes-ccm.o)
 .text.cbcmac_append
                0x00000000        0x0 contiki-cc2538dk.a(aes-ccm.o)
 .text.cbcmac_calc
                0x00000000        0x0 contiki-cc2538dk.a(aes-ccm.o)
 .text.aes_ccm_decrypt
                0x00000000        0x0 contiki-cc2538dk.a(aes-ccm.o)
 .text.aes_ccm_encrypt
                0x00000000        0x0 contiki-cc2538dk.a(aes-ccm.o)
 .text.aes_ccm_verify
                0x00000000        0x0 contiki-cc2538dk.a(aes-ccm.o)
 .bss.cbcmac_xor
                0x00000000        0x0 contiki-cc2538dk.a(aes-ccm.o)
 .data          0x00000000        0x0 /home/user/CodeSourcery/Sourcery_G++_Lite/bin/../lib/gcc/arm-none-eabi/4.3.2/thumb2/libgcc.a(_aeabi_uldivmod.o)
 .bss           0x00000000        0x0 /home/user/CodeSourcery/Sourcery_G++_Lite/bin/../lib/gcc/arm-none-eabi/4.3.2/thumb2/libgcc.a(_aeabi_uldivmod.o)
 .data          0x00000000        0x0 /home/user/CodeSourcery/Sourcery_G++_Lite/bin/../lib/gcc/arm-none-eabi/4.3.2/thumb2/libgcc.a(bpabi.o)
 .bss           0x00000000        0x0 /home/user/CodeSourcery/Sourcery_G++_Lite/bin/../lib/gcc/arm-none-eabi/4.3.2/thumb2/libgcc.a(bpabi.o)
 .data          0x00000000        0x0 /home/user/CodeSourcery/Sourcery_G++_Lite/bin/../lib/gcc/arm-none-eabi/4.3.2/thumb2/libgcc.a(_dvmd_tls.o)
 .bss           0x00000000        0x0 /home/user/CodeSourcery/Sourcery_G++_Lite/bin/../lib/gcc/arm-none-eabi/4.3.2/thumb2/libgcc.a(_dvmd_tls.o)
 .data          0x00000000        0x0 /home/user/CodeSourcery/Sourcery_G++_Lite/bin/../lib/gcc/arm-none-eabi/4.3.2/thumb2/libgcc.a(_divdi3.o)
 .bss           0x00000000        0x0 /home/user/CodeSourcery/Sourcery_G++_Lite/bin/../lib/gcc/arm-none-eabi/4.3.2/thumb2/libgcc.a(_divdi3.o)
 .ARM.extab     0x00000000        0x0 /home/user/CodeSourcery/Sourcery_G++_Lite/bin/../lib/gcc/arm-none-eabi/4.3.2/thumb2/libgcc.a(_divdi3.o)
 .data          0x00000000        0x0 /home/user/CodeSourcery/Sourcery_G++_Lite/bin/../lib/gcc/arm-none-eabi/4.3.2/thumb2/libgcc.a(_udivdi3.o)
 .bss           0x00000000        0x0 /home/user/CodeSourcery/Sourcery_G++_Lite/bin/../lib/gcc/arm-none-eabi/4.3.2/thumb2/libgcc.a(_udivdi3.o)
 .ARM.extab     0x00000000        0x0 /home/user/CodeSourcery/Sourcery_G++_Lite/bin/../lib/gcc/arm-none-eabi/4.3.2/thumb2/libgcc.a(_udivdi3.o)
 .data          0x00000000        0x0 /home/user/CodeSourcery/Sourcery_G++_Lite/bin/../lib/gcc/arm-none-eabi/4.3.2/thumb2/libgcc.a(_udivsi3.o)
 .bss           0x00000000        0x0 /home/user/CodeSourcery/Sourcery_G++_Lite/bin/../lib/gcc/arm-none-eabi/4.3.2/thumb2/libgcc.a(_udivsi3.o)
 .text          0x00000000        0x0 /home/user/CodeSourcery/Sourcery_G++_Lite/bin/../lib/gcc/arm-none-eabi/4.3.2/thumb2/libgcc.a(_clz.o)
 .data          0x00000000        0x0 /home/user/CodeSourcery/Sourcery_G++_Lite/bin/../lib/gcc/arm-none-eabi/4.3.2/thumb2/libgcc.a(_clz.o)
 .bss           0x00000000        0x0 /home/user/CodeSourcery/Sourcery_G++_Lite/bin/../lib/gcc/arm-none-eabi/4.3.2/thumb2/libgcc.a(_clz.o)
 .data          0x00000000        0x0 /home/user/CodeSourcery/Sourcery_G++_Lite/bin/../lib/gcc/arm-none-eabi/4.3.2/../../../../arm-none-eabi/lib/thumb2/libc.a(lib_a-memcmp.o)
 .bss           0x00000000        0x0 /home/user/CodeSourcery/Sourcery_G++_Lite/bin/../lib/gcc/arm-none-eabi/4.3.2/../../../../arm-none-eabi/lib/thumb2/libc.a(lib_a-memcmp.o)
 .data          0x00000000        0x0 /home/user/CodeSourcery/Sourcery_G++_Lite/bin/../lib/gcc/arm-none-eabi/4.3.2/../../../../arm-none-eabi/lib/thumb2/libc.a(lib_a-memcpy.o)
 .bss           0x00000000        0x0 /home/user/CodeSourcery/Sourcery_G++_Lite/bin/../lib/gcc/arm-none-eabi/4.3.2/../../../../arm-none-eabi/lib/thumb2/libc.a(lib_a-memcpy.o)
 .data          0x00000000        0x0 /home/user/CodeSourcery/Sourcery_G++_Lite/bin/../lib/gcc/arm-none-eabi/4.3.2/../../../../arm-none-eabi/lib/thumb2/libc.a(lib_a-memmove.o)
 .bss           0x00000000        0x0 /home/user/CodeSourcery/Sourcery_G++_Lite/bin/../lib/gcc/arm-none-eabi/4.3.2/../../../../arm-none-eabi/lib/thumb2/libc.a(lib_a-memmove.o)
 .data          0x00000000        0x0 /home/user/CodeSourcery/Sourcery_G++_Lite/bin/../lib/gcc/arm-none-eabi/4.3.2/../../../../arm-none-eabi/lib/thumb2/libc.a(lib_a-memset.o)
 .bss           0x00000000        0x0 /home/user/CodeSourcery/Sourcery_G++_Lite/bin/../lib/gcc/arm-none-eabi/4.3.2/../../../../arm-none-eabi/lib/thumb2/libc.a(lib_a-memset.o)
 .data          0x00000000        0x0 /home/user/CodeSourcery/Sourcery_G++_Lite/bin/../lib/gcc/arm-none-eabi/4.3.2/../../../../arm-none-eabi/lib/thumb2/libc.a(lib_a-strlen.o)
 .bss           0x00000000        0x0 /home/user/CodeSourcery/Sourcery_G++_Lite/bin/../lib/gcc/arm-none-eabi/4.3.2/../../../../arm-none-eabi/lib/thumb2/libc.a(lib_a-strlen.o)
 .data          0x00000000        0x0 /home/user/CodeSourcery/Sourcery_G++_Lite/bin/../lib/gcc/arm-none-eabi/4.3.2/../../../../arm-none-eabi/lib/thumb2/libc.a(lib_a-strncasecmp.o)
 .bss           0x00000000        0x0 /home/user/CodeSourcery/Sourcery_G++_Lite/bin/../lib/gcc/arm-none-eabi/4.3.2/../../../../arm-none-eabi/lib/thumb2/libc.a(lib_a-strncasecmp.o)
 .data          0x00000000        0x0 /home/user/CodeSourcery/Sourcery_G++_Lite/bin/../lib/gcc/arm-none-eabi/4.3.2/../../../../arm-none-eabi/lib/thumb2/libc.a(lib_a-strncmp.o)
 .bss           0x00000000        0x0 /home/user/CodeSourcery/Sourcery_G++_Lite/bin/../lib/gcc/arm-none-eabi/4.3.2/../../../../arm-none-eabi/lib/thumb2/libc.a(lib_a-strncmp.o)
 .text          0x00000000        0x0 /home/user/CodeSourcery/Sourcery_G++_Lite/bin/../lib/gcc/arm-none-eabi/4.3.2/../../../../arm-none-eabi/lib/thumb2/libc.a(lib_a-ctype_.o)
 .bss           0x00000000        0x0 /home/user/CodeSourcery/Sourcery_G++_Lite/bin/../lib/gcc/arm-none-eabi/4.3.2/../../../../arm-none-eabi/lib/thumb2/libc.a(lib_a-ctype_.o)

Memory Configuration

Name             Origin             Length             Attributes
FLASH            0x00200000         0x0007ffd4         xr
FLASH_CCA        0x0027ffd4         0x0000002c         xr
SRAM             0x20000000         0x00008000         xrw
*default*        0x00000000         0xffffffff

Linker script and memory map

LOAD obj_cc2538dk/startup-gcc.o
LOAD mqtt-demo.co
LOAD contiki-cc2538dk.a
START GROUP
LOAD /home/user/CodeSourcery/Sourcery_G++_Lite/bin/../lib/gcc/arm-none-eabi/4.3.2/thumb2/libgcc.a
LOAD /home/user/CodeSourcery/Sourcery_G++_Lite/bin/../lib/gcc/arm-none-eabi/4.3.2/../../../../arm-none-eabi/lib/thumb2/libc.a
END GROUP

.text           0x00200000     0xdf4a
                0x00200000                _text = .
 *(SORT(.vectors))
 .vectors       0x00200000      0x28c obj_cc2538dk/startup-gcc.o
                0x00200000                vectors
 *(SORT(.text*))
 .text.default_handler
                0x0020028c        0x4 obj_cc2538dk/startup-gcc.o
                0x0020028c                default_handler
                0x0020028c                usb_isr
 .text.reset_handler
                0x00200290       0x40 obj_cc2538dk/startup-gcc.o
                0x00200290                reset_handler
 .text.nmi_handler
                0x002002d0        0x8 obj_cc2538dk/startup-gcc.o
                0x002002d0                nmi_handler
 .text.uart0_input
                0x002002d8       0x40 mqtt-demo.co
                0x002002d8                uart0_input
 .text.process_thread_cc2538_demo_process
                0x00200318       0x64 mqtt-demo.co
 .text.process_thread_uart_response_process
                0x0020037c       0x4c mqtt-demo.co
 .text.process_thread_soil_process
                0x002003c8       0x68 mqtt-demo.co
 .text.ipaddr_sprintf
                0x00200430       0x88 mqtt-demo.co
                0x00200430                ipaddr_sprintf
 .text.publish_led_off
                0x002004b8        0xc mqtt-demo.co
 .text.mqtt_event
                0x002004c4       0xbc mqtt-demo.co
 .text.ping_parent
                0x00200580       0x1c mqtt-demo.co
 .text.process_thread_mqtt_demo_process
                0x0020059c      0x5e4 mqtt-demo.co
 .text.echo_reply_handler
                0x00200b80       0x24 mqtt-demo.co
 .text.encode_remaining_length
                0x00200ba4       0x28 contiki-cc2538dk.a(mqtt.o)
 .text.call_event
                0x00200bcc       0x1c contiki-cc2538dk.a(mqtt.o)
 .text.mqtt_disconnect
                0x00200be8       0x28 contiki-cc2538dk.a(mqtt.o)
                0x00200be8                mqtt_disconnect
 .text.reset_packet
                0x00200c10       0x14 contiki-cc2538dk.a(mqtt.o)
 .text.reset_defaults
                0x00200c24       0x24 contiki-cc2538dk.a(mqtt.o)
 .text.connect_tcp
                0x00200c48       0x54 contiki-cc2538dk.a(mqtt.o)
 .text.handle_publish
                0x00200c9c       0x2c contiki-cc2538dk.a(mqtt.o)
 .text.tcp_input
                0x00200cc8      0x308 contiki-cc2538dk.a(mqtt.o)
 .text.keep_alive_callback
                0x00200fd0       0x44 contiki-cc2538dk.a(mqtt.o)
 .text.abort_connection
                0x00201014       0x40 contiki-cc2538dk.a(mqtt.o)
 .text.tcp_event
                0x00201054       0x94 contiki-cc2538dk.a(mqtt.o)
 .text.send_out_buffer
                0x002010e8       0x28 contiki-cc2538dk.a(mqtt.o)
 .text.write_byte
                0x00201110       0x24 contiki-cc2538dk.a(mqtt.o)
 .text.write_bytes
                0x00201134       0x50 contiki-cc2538dk.a(mqtt.o)
 .text.process_thread_mqtt_process
                0x00201184     0x1088 contiki-cc2538dk.a(mqtt.o)
 .text.string_to_mqtt_string
                0x0020220c       0x18 contiki-cc2538dk.a(mqtt.o)
 .text.mqtt_set_username_password
                0x00202224       0x40 contiki-cc2538dk.a(mqtt.o)
                0x00202224                mqtt_set_username_password
 .text.mqtt_publish
                0x00202264       0x7c contiki-cc2538dk.a(mqtt.o)
                0x00202264                mqtt_publish
 .text.mqtt_subscribe
                0x002022e0       0x60 contiki-cc2538dk.a(mqtt.o)
                0x002022e0                mqtt_subscribe
 .text.mqtt_connect
                0x00202340       0x5c contiki-cc2538dk.a(mqtt.o)
                0x00202340                mqtt_connect
 .text.mqtt_init
                0x0020239c       0xb4 contiki-cc2538dk.a(mqtt.o)
                0x0020239c                mqtt_init
 .text.mqtt_register
                0x00202450       0x54 contiki-cc2538dk.a(mqtt.o)
                0x00202450                mqtt_register
 .text.show_leds
                0x002024a4       0x10 contiki-cc2538dk.a(leds.o)
 .text.leds_off
                0x002024b4       0x14 contiki-cc2538dk.a(leds.o)
                0x002024b4                leds_off
 .text.leds_on  0x002024c8       0x14 contiki-cc2538dk.a(leds.o)
                0x002024c8                leds_on
 .text.leds_init
                0x002024dc       0x14 contiki-cc2538dk.a(leds.o)
                0x002024dc                leds_init
 .text.leds_arch_init
                0x002024f0       0x10 contiki-cc2538dk.a(leds-arch.o)
                0x002024f0                leds_arch_init
 .text.leds_arch_set
                0x00202500        0xc contiki-cc2538dk.a(leds-arch.o)
                0x00202500                leds_arch_set
 .text.fade     0x0020250c       0x54 contiki-cc2538dk.a(contiki-main.o)
 .text.main     0x00202560      0x1d4 contiki-cc2538dk.a(contiki-main.o)
                0x00202560                main
 .text.get_sensor_index
                0x00202734       0x24 contiki-cc2538dk.a(sensors.o)
 .text.process_thread_sensors_process
                0x00202758       0xdc contiki-cc2538dk.a(sensors.o)
 .text.sensors_changed
                0x00202834       0x24 contiki-cc2538dk.a(sensors.o)
                0x00202834                sensors_changed
 .text.config   0x00202858       0x40 contiki-cc2538dk.a(button-sensor.o)
 .text.config_down
                0x00202898       0x30 contiki-cc2538dk.a(button-sensor.o)
 .text.config_up
                0x002028c8       0x30 contiki-cc2538dk.a(button-sensor.o)
 .text.config_right
                0x002028f8       0x30 contiki-cc2538dk.a(button-sensor.o)
 .text.config_left
                0x00202928       0x30 contiki-cc2538dk.a(button-sensor.o)
 .text.config_select
                0x00202958       0x30 contiki-cc2538dk.a(button-sensor.o)
 .text.button_sensor_init
                0x00202988       0x10 contiki-cc2538dk.a(button-sensor.o)
                0x00202988                button_sensor_init
 .text.btn_callback
                0x00202998       0x60 contiki-cc2538dk.a(button-sensor.o)
 .text.status   0x002029f8        0x4 contiki-cc2538dk.a(als-sensor.o)
 .text.configure
                0x002029fc       0x54 contiki-cc2538dk.a(als-sensor.o)
 .text.value    0x00202a50       0x28 contiki-cc2538dk.a(als-sensor.o)
 .text.clock_init
                0x00202a78       0x50 contiki-cc2538dk.a(clock.o)
                0x00202a78                clock_init
 .text.clock_time
                0x00202ac8       0x14 contiki-cc2538dk.a(clock.o)
                0x00202ac8                clock_time
 .text.clock_seconds
                0x00202adc       0x14 contiki-cc2538dk.a(clock.o)
                0x00202adc                clock_seconds
 .text.clock_delay_usec
                0x00202af0       0x24 contiki-cc2538dk.a(clock.o)
                0x00202af0                clock_delay_usec
 .text.update_ticks
                0x00202b14       0x4c contiki-cc2538dk.a(clock.o)
 .text.clock_isr
                0x00202b60        0x8 contiki-cc2538dk.a(clock.o)
                0x00202b60                clock_isr
 .text.clock_adjust
                0x00202b68       0x20 contiki-cc2538dk.a(clock.o)
                0x00202b68                clock_adjust
 .text.rtimer_arch_init
                0x00202b88        0x4 contiki-cc2538dk.a(rtimer-arch.o)
                0x00202b88                rtimer_arch_init
 .text.rtimer_arch_next_trigger
                0x00202b8c        0xc contiki-cc2538dk.a(rtimer-arch.o)
                0x00202b8c                rtimer_arch_next_trigger
 .text.rtimer_arch_now
                0x00202b98       0x24 contiki-cc2538dk.a(rtimer-arch.o)
                0x00202b98                rtimer_arch_now
 .text.rtimer_isr
                0x00202bbc       0x24 contiki-cc2538dk.a(rtimer-arch.o)
                0x00202bbc                rtimer_isr
 .text.rtimer_arch_schedule
                0x00202be0       0x58 contiki-cc2538dk.a(rtimer-arch.o)
                0x00202be0                rtimer_arch_schedule
 .text.permit_pm1
                0x00202c38       0x30 contiki-cc2538dk.a(uart.o)
 .text.uart_set_input
                0x00202c68       0x10 contiki-cc2538dk.a(uart.o)
                0x00202c68                uart_set_input
 .text.uart_write_byte
                0x00202c78       0x20 contiki-cc2538dk.a(uart.o)
                0x00202c78                uart_write_byte
 .text.uart_isr
                0x00202c98       0x64 contiki-cc2538dk.a(uart.o)
 .text.uart0_isr
                0x00202cfc        0xc contiki-cc2538dk.a(uart.o)
                0x00202cfc                uart0_isr
 .text.uart1_isr
                0x00202d08        0xc contiki-cc2538dk.a(uart.o)
                0x00202d08                uart1_isr
 .text.uart_init
                0x00202d14      0x194 contiki-cc2538dk.a(uart.o)
                0x00202d14                uart_init
 .text.watchdog_init
                0x00202ea8        0xc contiki-cc2538dk.a(watchdog.o)
                0x00202ea8                watchdog_init
 .text.watchdog_start
                0x00202eb4        0xc contiki-cc2538dk.a(watchdog.o)
                0x00202eb4                watchdog_start
 .text.watchdog_periodic
                0x00202ec0       0x10 contiki-cc2538dk.a(watchdog.o)
                0x00202ec0                watchdog_periodic
 .text.nvic_init
                0x00202ed0       0x3c contiki-cc2538dk.a(nvic.o)
                0x00202ed0                nvic_init
 .text.nvic_interrupt_enable
                0x00202f0c       0x18 contiki-cc2538dk.a(nvic.o)
                0x00202f0c                nvic_interrupt_enable
 .text.nvic_interrupt_disable
                0x00202f24       0x18 contiki-cc2538dk.a(nvic.o)
                0x00202f24                nvic_interrupt_disable
 .text.nvic_interrupt_unpend
                0x00202f3c       0x18 contiki-cc2538dk.a(nvic.o)
                0x00202f3c                nvic_interrupt_unpend
 .text.cpu_cpsie
                0x00202f54        0x8 contiki-cc2538dk.a(cpu.o)
                0x00202f54                cpu_cpsie
 .text.cpu_cpsid
                0x00202f5c        0x8 contiki-cc2538dk.a(cpu.o)
                0x00202f5c                cpu_cpsid
 .text.sys_ctrl_init
                0x00202f64       0x28 contiki-cc2538dk.a(sys-ctrl.o)
                0x00202f64                sys_ctrl_init
 .text.gpio_register_callback
                0x00202f8c       0x10 contiki-cc2538dk.a(gpio.o)
                0x00202f8c                gpio_register_callback
 .text.notify   0x00202f9c       0x34 contiki-cc2538dk.a(gpio.o)
                0x00202f9c                notify
 .text.gpio_init
                0x00202fd0       0x14 contiki-cc2538dk.a(gpio.o)
                0x00202fd0                gpio_init
 .text.gpio_port_isr
                0x00202fe4       0x4c contiki-cc2538dk.a(gpio.o)
 .text.gpio_port_d_isr
                0x00203030        0xc contiki-cc2538dk.a(gpio.o)
                0x00203030                gpio_port_d_isr
 .text.gpio_port_c_isr
                0x0020303c        0xc contiki-cc2538dk.a(gpio.o)
                0x0020303c                gpio_port_c_isr
 .text.gpio_port_b_isr
                0x00203048        0xc contiki-cc2538dk.a(gpio.o)
                0x00203048                gpio_port_b_isr
 .text.gpio_port_a_isr
                0x00203054        0xc contiki-cc2538dk.a(gpio.o)
                0x00203054                gpio_port_a_isr
 .text.ioc_init
                0x00203060       0x1c contiki-cc2538dk.a(ioc.o)
                0x00203060                ioc_init
 .text.ioc_set_over
                0x0020307c       0x14 contiki-cc2538dk.a(ioc.o)
                0x0020307c                ioc_set_over
 .text.ioc_set_sel
                0x00203090       0x14 contiki-cc2538dk.a(ioc.o)
                0x00203090                ioc_set_sel
 .text.adc_init
                0x002030a4       0x10 contiki-cc2538dk.a(adc.o)
                0x002030a4                adc_init
 .text.adc_get  0x002030b4       0x74 contiki-cc2538dk.a(adc.o)
                0x002030b4                adc_get
 .text.crypto_isr
                0x00203128       0x24 contiki-cc2538dk.a(crypto.o)
                0x00203128                crypto_isr
 .text.set_frame_filtering
                0x0020314c       0x1c contiki-cc2538dk.a(cc2538-rf.o)
 .text.on       0x00203168       0x2c contiki-cc2538dk.a(cc2538-rf.o)
 .text.off      0x00203194       0x3c contiki-cc2538dk.a(cc2538-rf.o)
 .text.set_channel
                0x002031d0       0x4c contiki-cc2538dk.a(cc2538-rf.o)
 .text.channel_clear
                0x0020321c       0x3c contiki-cc2538dk.a(cc2538-rf.o)
 .text.receiving_packet
                0x00203258       0x18 contiki-cc2538dk.a(cc2538-rf.o)
 .text.pending_packet
                0x00203270       0x10 contiki-cc2538dk.a(cc2538-rf.o)
 .text.get_value
                0x00203280      0x114 contiki-cc2538dk.a(cc2538-rf.o)
 .text.set_value
                0x00203394       0xe4 contiki-cc2538dk.a(cc2538-rf.o)
 .text.get_object
                0x00203478       0x2c contiki-cc2538dk.a(cc2538-rf.o)
 .text.set_object
                0x002034a4       0x28 contiki-cc2538dk.a(cc2538-rf.o)
 .text.read     0x002034cc       0xdc contiki-cc2538dk.a(cc2538-rf.o)
 .text.cc2538_rf_err_isr
                0x002035a8       0x30 contiki-cc2538dk.a(cc2538-rf.o)
                0x002035a8                cc2538_rf_err_isr
 .text.cc2538_rf_rx_tx_isr
                0x002035d8       0x18 contiki-cc2538dk.a(cc2538-rf.o)
                0x002035d8                cc2538_rf_rx_tx_isr
 .text.transmit
                0x002035f0       0x9c contiki-cc2538dk.a(cc2538-rf.o)
 .text.prepare  0x0020368c       0x68 contiki-cc2538dk.a(cc2538-rf.o)
 .text.send     0x002036f4       0x10 contiki-cc2538dk.a(cc2538-rf.o)
 .text.init     0x00203704       0xd8 contiki-cc2538dk.a(cc2538-rf.o)
 .text.process_thread_cc2538_rf_process
                0x002037dc       0x7c contiki-cc2538dk.a(cc2538-rf.o)
 .text.udma_set_channel_src
                0x00203858       0x10 contiki-cc2538dk.a(udma.o)
                0x00203858                udma_set_channel_src
 .text.udma_set_channel_dst
                0x00203868       0x14 contiki-cc2538dk.a(udma.o)
                0x00203868                udma_set_channel_dst
 .text.udma_set_channel_control_word
                0x0020387c       0x14 contiki-cc2538dk.a(udma.o)
                0x0020387c                udma_set_channel_control_word
 .text.udma_channel_enable
                0x00203890       0x18 contiki-cc2538dk.a(udma.o)
                0x00203890                udma_channel_enable
 .text.udma_channel_mask_set
                0x002038a8       0x18 contiki-cc2538dk.a(udma.o)
                0x002038a8                udma_channel_mask_set
 .text.udma_channel_sw_request
                0x002038c0       0x18 contiki-cc2538dk.a(udma.o)
                0x002038c0                udma_channel_sw_request
 .text.udma_channel_get_mode
                0x002038d8       0x1c contiki-cc2538dk.a(udma.o)
                0x002038d8                udma_channel_get_mode
 .text.udma_isr
                0x002038f4       0x10 contiki-cc2538dk.a(udma.o)
                0x002038f4                udma_isr
 .text.udma_err_isr
                0x00203904        0xc contiki-cc2538dk.a(udma.o)
                0x00203904                udma_err_isr
 .text.udma_init
                0x00203910       0x30 contiki-cc2538dk.a(udma.o)
                0x00203910                udma_init
 .text.enter_pm0
                0x00203940        0x4 contiki-cc2538dk.a(lpm.o)
 .text.select_32_mhz_xosc
                0x00203944       0x34 contiki-cc2538dk.a(lpm.o)
 .text.lpm_register_peripheral
                0x00203978       0x30 contiki-cc2538dk.a(lpm.o)
                0x00203978                lpm_register_peripheral
 .text.lpm_init
                0x002039a8       0x24 contiki-cc2538dk.a(lpm.o)
                0x002039a8                lpm_init
 .text.lpm_enter
                0x002039cc       0xc8 contiki-cc2538dk.a(lpm.o)
                0x002039cc                lpm_enter
 .text.lpm_exit
                0x00203a94       0x38 contiki-cc2538dk.a(lpm.o)
                0x00203a94                lpm_exit
 .text.putchar  0x00203acc       0x10 contiki-cc2538dk.a(dbg.o)
                0x00203acc                putchar
 .text.puts     0x00203adc       0x24 contiki-cc2538dk.a(dbg.o)
                0x00203adc                puts
 .text.dbg_send_bytes
                0x00203b00       0x24 contiki-cc2538dk.a(dbg.o)
                0x00203b00                dbg_send_bytes
 .text.ieee_addr_cpy_to
                0x00203b24       0x78 contiki-cc2538dk.a(ieee-addr.o)
                0x00203b24                ieee_addr_cpy_to
 .text.configure
                0x00203b9c        0x4 contiki-cc2538dk.a(cc2538-temp-sen)
 .text.status   0x00203ba0        0x4 contiki-cc2538dk.a(cc2538-temp-sen)
 .text.value    0x00203ba4       0x3c contiki-cc2538dk.a(cc2538-temp-sen)
 .text.configure
                0x00203be0        0x4 contiki-cc2538dk.a(vdd3-sensor.o)
 .text.status   0x00203be4        0x4 contiki-cc2538dk.a(vdd3-sensor.o)
 .text.value    0x00203be8       0x2c contiki-cc2538dk.a(vdd3-sensor.o)
 .text.printf   0x00203c14       0x20 contiki-cc2538dk.a(dbg-printf.o)
                0x00203c14                printf
 .text.write_str
                0x00203c34       0x10 contiki-cc2538dk.a(dbg-printf.o)
 .text.vsnprintf
                0x00203c44       0x28 contiki-cc2538dk.a(dbg-snprintf.o)
                0x00203c44                vsnprintf
 .text.buffer_str
                0x00203c6c       0x28 contiki-cc2538dk.a(dbg-snprintf.o)
 .text.snprintf
                0x00203c94       0x18 contiki-cc2538dk.a(dbg-snprintf.o)
                0x00203c94                snprintf
 .text.parse_uint
                0x00203cac       0x24 contiki-cc2538dk.a(strformat.o)
 .text.output_uint_hex
                0x00203cd0       0x48 contiki-cc2538dk.a(strformat.o)
 .text.fill_space
                0x00203d18       0x38 contiki-cc2538dk.a(strformat.o)
 .text.format_str_v
                0x00203d50      0x6c8 contiki-cc2538dk.a(strformat.o)
                0x00203d50                format_str_v
 .text.autostart_start
                0x00204418       0x18 contiki-cc2538dk.a(autostart.o)
                0x00204418                autostart_start
 .text.process_thread_ctimer_process
                0x00204430       0x8c contiki-cc2538dk.a(ctimer.o)
 .text.ctimer_stop
                0x002044bc       0x28 contiki-cc2538dk.a(ctimer.o)
                0x002044bc                ctimer_stop
 .text.ctimer_restart
                0x002044e4       0x34 contiki-cc2538dk.a(ctimer.o)
                0x002044e4                ctimer_restart
 .text.ctimer_set
                0x00204518       0x44 contiki-cc2538dk.a(ctimer.o)
                0x00204518                ctimer_set
 .text.ctimer_reset
                0x0020455c       0x34 contiki-cc2538dk.a(ctimer.o)
                0x0020455c                ctimer_reset
 .text.ctimer_init
                0x00204590       0x24 contiki-cc2538dk.a(ctimer.o)
                0x00204590                ctimer_init
 .text.energest_init
                0x002045b4        0x4 contiki-cc2538dk.a(energest.o)
                0x002045b4                energest_init
 .text.etimer_expired
                0x002045b8        0xc contiki-cc2538dk.a(etimer.o)
                0x002045b8                etimer_expired
 .text.etimer_expiration_time
                0x002045c4        0x8 contiki-cc2538dk.a(etimer.o)
                0x002045c4                etimer_expiration_time
 .text.etimer_pending
                0x002045cc       0x10 contiki-cc2538dk.a(etimer.o)
                0x002045cc                etimer_pending
 .text.update_time
                0x002045dc       0x44 contiki-cc2538dk.a(etimer.o)
 .text.etimer_stop
                0x00204620       0x34 contiki-cc2538dk.a(etimer.o)
                0x00204620                etimer_stop
 .text.etimer_request_poll
                0x00204654       0x10 contiki-cc2538dk.a(etimer.o)
                0x00204654                etimer_request_poll
 .text.process_thread_etimer_process
                0x00204664       0xa0 contiki-cc2538dk.a(etimer.o)
 .text.add_timer
                0x00204704       0x40 contiki-cc2538dk.a(etimer.o)
 .text.etimer_restart
                0x00204744       0x10 contiki-cc2538dk.a(etimer.o)
                0x00204744                etimer_restart
 .text.etimer_reset
                0x00204754       0x10 contiki-cc2538dk.a(etimer.o)
                0x00204754                etimer_reset
 .text.etimer_set
                0x00204764       0x10 contiki-cc2538dk.a(etimer.o)
                0x00204764                etimer_set
 .text.process_alloc_event
                0x00204774       0x10 contiki-cc2538dk.a(process.o)
                0x00204774                process_alloc_event
 .text.process_init
                0x00204784       0x30 contiki-cc2538dk.a(process.o)
                0x00204784                process_init
 .text.process_nevents
                0x002047b4       0x14 contiki-cc2538dk.a(process.o)
                0x002047b4                process_nevents
 .text.process_post
                0x002047c8       0x50 contiki-cc2538dk.a(process.o)
                0x002047c8                process_post
 .text.process_poll
                0x00204818       0x1c contiki-cc2538dk.a(process.o)
                0x00204818                process_poll
 .text.process_is_running
                0x00204834        0xc contiki-cc2538dk.a(process.o)
                0x00204834                process_is_running
 .text.exit_process
                0x00204840       0x8c contiki-cc2538dk.a(process.o)
 .text.call_process
                0x002048cc       0x40 contiki-cc2538dk.a(process.o)
 .text.process_post_synch
                0x0020490c       0x14 contiki-cc2538dk.a(process.o)
                0x0020490c                process_post_synch
 .text.process_start
                0x00204920       0x30 contiki-cc2538dk.a(process.o)
                0x00204920                process_start
 .text.do_poll  0x00204950       0x34 contiki-cc2538dk.a(process.o)
 .text.process_run
                0x00204984       0xb8 contiki-cc2538dk.a(process.o)
                0x00204984                process_run
 .text.rtimer_run_next
                0x00204a3c       0x24 contiki-cc2538dk.a(rtimer.o)
                0x00204a3c                rtimer_run_next
 .text.rtimer_set
                0x00204a60       0x24 contiki-cc2538dk.a(rtimer.o)
                0x00204a60                rtimer_set
 .text.rtimer_init
                0x00204a84        0x8 contiki-cc2538dk.a(rtimer.o)
                0x00204a84                rtimer_init
 .text.timer_reset
                0x00204a8c        0xc contiki-cc2538dk.a(timer.o)
                0x00204a8c                timer_reset
 .text.timer_expired
                0x00204a98       0x1c contiki-cc2538dk.a(timer.o)
                0x00204a98                timer_expired
 .text.timer_restart
                0x00204ab4        0xc contiki-cc2538dk.a(timer.o)
                0x00204ab4                timer_restart
 .text.timer_set
                0x00204ac0       0x10 contiki-cc2538dk.a(timer.o)
                0x00204ac0                timer_set
 .text.process_thread_serial_line_process
                0x00204ad0       0xa8 contiki-cc2538dk.a(serial-line.o)
 .text.serial_line_init
                0x00204b78       0x24 contiki-cc2538dk.a(serial-line.o)
                0x00204b78                serial_line_init
 .text.serial_line_input_byte
                0x00204b9c       0x44 contiki-cc2538dk.a(serial-line.o)
                0x00204b9c                serial_line_input_byte
 .text.list_init
                0x00204be0        0x8 contiki-cc2538dk.a(list.o)
                0x00204be0                list_init
 .text.list_head
                0x00204be8        0x4 contiki-cc2538dk.a(list.o)
                0x00204be8                list_head
 .text.list_tail
                0x00204bec       0x10 contiki-cc2538dk.a(list.o)
                0x00204bec                list_tail
 .text.list_remove
                0x00204bfc       0x28 contiki-cc2538dk.a(list.o)
                0x00204bfc                list_remove
 .text.list_push
                0x00204c24       0x14 contiki-cc2538dk.a(list.o)
                0x00204c24                list_push
 .text.list_add
                0x00204c38       0x20 contiki-cc2538dk.a(list.o)
                0x00204c38                list_add
 .text.list_length
                0x00204c58       0x10 contiki-cc2538dk.a(list.o)
                0x00204c58                list_length
 .text.list_item_next
                0x00204c68        0x8 contiki-cc2538dk.a(list.o)
                0x00204c68                list_item_next
 .text.random_rand
                0x00204c70       0x24 contiki-cc2538dk.a(random.o)
                0x00204c70                random_rand
 .text.random_init
                0x00204c94       0x90 contiki-cc2538dk.a(random.o)
                0x00204c94                random_init
 .text.ringbuf_init
                0x00204d24       0x10 contiki-cc2538dk.a(ringbuf.o)
                0x00204d24                ringbuf_init
 .text.ringbuf_put
                0x00204d34       0x2c contiki-cc2538dk.a(ringbuf.o)
                0x00204d34                ringbuf_put
 .text.ringbuf_get
                0x00204d60       0x28 contiki-cc2538dk.a(ringbuf.o)
                0x00204d60                ringbuf_get
 .text.addr_context_lookup_by_number
                0x00204d88       0x18 contiki-cc2538dk.a(sicslowpan.o)
 .text.sicslowpan_get_last_rssi
                0x00204da0        0xc contiki-cc2538dk.a(sicslowpan.o)
                0x00204da0                sicslowpan_get_last_rssi
 .text.compress_addr_64
                0x00204dac       0xa0 contiki-cc2538dk.a(sicslowpan.o)
 .text.uncompress_addr
                0x00204e4c       0x74 contiki-cc2538dk.a(sicslowpan.o)
 .text.set_packet_attrs
                0x00204ec0       0x44 contiki-cc2538dk.a(sicslowpan.o)
 .text.input    0x00204f04      0x620 contiki-cc2538dk.a(sicslowpan.o)
 .text.sicslowpan_init
                0x00205524       0x24 contiki-cc2538dk.a(sicslowpan.o)
                0x00205524                sicslowpan_init
 .text.addr_context_lookup_by_prefix
                0x00205548       0x24 contiki-cc2538dk.a(sicslowpan.o)
 .text.send_packet
                0x0020556c       0x24 contiki-cc2538dk.a(sicslowpan.o)
 .text.output   0x00205590      0x6d4 contiki-cc2538dk.a(sicslowpan.o)
 .text.packet_sent
                0x00205c64       0x28 contiki-cc2538dk.a(sicslowpan.o)
 .text.uip_add32
                0x00205c8c       0x60 contiki-cc2538dk.a(uip6.o)
                0x00205c8c                uip_add32
 .text.chksum   0x00205cec       0x38 contiki-cc2538dk.a(uip6.o)
 .text.uip_unlisten
                0x00205d24       0x3c contiki-cc2538dk.a(uip6.o)
                0x00205d24                uip_unlisten
 .text.uip_add_rcv_nxt
                0x00205d60       0x34 contiki-cc2538dk.a(uip6.o)
 .text.uip_htons
                0x00205d94        0xc contiki-cc2538dk.a(uip6.o)
                0x00205d94                uip_htons
 .text.uip_connect
                0x00205da0       0xfc contiki-cc2538dk.a(uip6.o)
                0x00205da0                uip_connect
 .text.upper_layer_chksum
                0x00205e9c       0x50 contiki-cc2538dk.a(uip6.o)
 .text.uip_udpchksum
                0x00205eec        0xc contiki-cc2538dk.a(uip6.o)
                0x00205eec                uip_udpchksum
 .text.uip_tcpchksum
                0x00205ef8        0xc contiki-cc2538dk.a(uip6.o)
                0x00205ef8                uip_tcpchksum
 .text.uip_icmp6chksum
                0x00205f04        0xc contiki-cc2538dk.a(uip6.o)
                0x00205f04                uip_icmp6chksum
 .text.uip_htonl
                0x00205f10       0x18 contiki-cc2538dk.a(uip6.o)
                0x00205f10                uip_htonl
 .text.uip_send
                0x00205f28       0x4c contiki-cc2538dk.a(uip6.o)
                0x00205f28                uip_send
 .text.ext_hdr_options_process
                0x00205f74       0xb8 contiki-cc2538dk.a(uip6.o)
 .text.remove_ext_hdr
                0x0020602c       0x58 contiki-cc2538dk.a(uip6.o)
                0x0020602c                remove_ext_hdr
 .text.uip_process
                0x00206084      0xe5c contiki-cc2538dk.a(uip6.o)
                0x00206084                uip_process
 .text.uip_init
                0x00206ee0       0x78 contiki-cc2538dk.a(uip6.o)
                0x00206ee0                uip_init
 .text.uip_ds6_get_link_local
                0x00206f58       0x44 contiki-cc2538dk.a(uip-ds6.o)
                0x00206f58                uip_ds6_get_link_local
 .text.uip_ds6_get_global
                0x00206f9c       0x44 contiki-cc2538dk.a(uip-ds6.o)
                0x00206f9c                uip_ds6_get_global
 .text.uip_ds6_maddr_rm
                0x00206fe0        0x8 contiki-cc2538dk.a(uip-ds6.o)
                0x00206fe0                uip_ds6_maddr_rm
 .text.get_match_length
                0x00206fe8       0x44 contiki-cc2538dk.a(uip-ds6.o)
                0x00206fe8                get_match_length
 .text.uip_ds6_select_src
                0x0020702c       0x98 contiki-cc2538dk.a(uip-ds6.o)
                0x0020702c                uip_ds6_select_src
 .text.uip_ds6_compute_reachable_time
                0x002070c4       0x28 contiki-cc2538dk.a(uip-ds6.o)
                0x002070c4                uip_ds6_compute_reachable_time
 .text.uip_ds6_set_addr_iid
                0x002070ec       0x18 contiki-cc2538dk.a(uip-ds6.o)
                0x002070ec                uip_ds6_set_addr_iid
 .text.uip_ds6_is_addr_onlink
                0x00207104       0x40 contiki-cc2538dk.a(uip-ds6.o)
                0x00207104                uip_ds6_is_addr_onlink
 .text.uip_ds6_list_loop
                0x00207144       0x48 contiki-cc2538dk.a(uip-ds6.o)
                0x00207144                uip_ds6_list_loop
 .text.uip_ds6_maddr_lookup
                0x0020718c       0x28 contiki-cc2538dk.a(uip-ds6.o)
                0x0020718c                uip_ds6_maddr_lookup
 .text.uip_ds6_addr_rm
                0x002071b4       0x48 contiki-cc2538dk.a(uip-ds6.o)
                0x002071b4                uip_ds6_addr_rm
 .text.uip_ds6_maddr_add
                0x002071fc       0x3c contiki-cc2538dk.a(uip-ds6.o)
                0x002071fc                uip_ds6_maddr_add
 .text.uip_ds6_addr_lookup
                0x00207238       0x28 contiki-cc2538dk.a(uip-ds6.o)
                0x00207238                uip_ds6_addr_lookup
 .text.uip_ds6_addr_add
                0x00207260       0x98 contiki-cc2538dk.a(uip-ds6.o)
                0x00207260                uip_ds6_addr_add
 .text.uip_ds6_prefix_add
                0x002072f8       0x60 contiki-cc2538dk.a(uip-ds6.o)
                0x002072f8                uip_ds6_prefix_add
 .text.uip_ds6_periodic
                0x00207358       0x54 contiki-cc2538dk.a(uip-ds6.o)
                0x00207358                uip_ds6_periodic
 .text.uip_ds6_init
                0x002073ac       0xdc contiki-cc2538dk.a(uip-ds6.o)
                0x002073ac                uip_ds6_init
 .text.uip_ds6_link_neighbor_callback
                0x00207488       0x28 contiki-cc2538dk.a(uip-ds6-nbr.o)
                0x00207488                uip_ds6_link_neighbor_callback
 .text.uip_ds6_nbr_ll_lookup
                0x002074b0       0x14 contiki-cc2538dk.a(uip-ds6-nbr.o)
                0x002074b0                uip_ds6_nbr_ll_lookup
 .text.uip_ds6_nbr_ipaddr_from_lladdr
                0x002074c4        0x8 contiki-cc2538dk.a(uip-ds6-nbr.o)
                0x002074c4                uip_ds6_nbr_ipaddr_from_lladdr
 .text.uip_ds6_nbr_lookup
                0x002074cc       0x38 contiki-cc2538dk.a(uip-ds6-nbr.o)
                0x002074cc                uip_ds6_nbr_lookup
 .text.uip_ds6_nbr_get_ll
                0x00207504       0x14 contiki-cc2538dk.a(uip-ds6-nbr.o)
                0x00207504                uip_ds6_nbr_get_ll
 .text.uip_ds6_nbr_lladdr_from_ipaddr
                0x00207518       0x10 contiki-cc2538dk.a(uip-ds6-nbr.o)
                0x00207518                uip_ds6_nbr_lladdr_from_ipaddr
 .text.uip_ds6_nbr_rm
                0x00207528       0x1c contiki-cc2538dk.a(uip-ds6-nbr.o)
                0x00207528                uip_ds6_nbr_rm
 .text.uip_ds6_neighbor_periodic
                0x00207544      0x110 contiki-cc2538dk.a(uip-ds6-nbr.o)
                0x00207544                uip_ds6_neighbor_periodic
 .text.uip_ds6_nbr_add
                0x00207654       0x50 contiki-cc2538dk.a(uip-ds6-nbr.o)
                0x00207654                uip_ds6_nbr_add
 .text.uip_ds6_neighbors_init
                0x002076a4       0x18 contiki-cc2538dk.a(uip-ds6-nbr.o)
                0x002076a4                uip_ds6_neighbors_init
 .text.uip_ds6_route_head
                0x002076bc       0x10 contiki-cc2538dk.a(uip-ds6-route.o)
                0x002076bc                uip_ds6_route_head
 .text.uip_ds6_route_next
                0x002076cc        0xc contiki-cc2538dk.a(uip-ds6-route.o)
                0x002076cc                uip_ds6_route_next
 .text.uip_ds6_defrt_choose
                0x002076d8       0x34 contiki-cc2538dk.a(uip-ds6-route.o)
                0x002076d8                uip_ds6_defrt_choose
 .text.uip_ds6_defrt_lookup
                0x0020770c       0x2c contiki-cc2538dk.a(uip-ds6-route.o)
                0x0020770c                uip_ds6_defrt_lookup
 .text.call_route_callback
                0x00207738       0x4c contiki-cc2538dk.a(uip-ds6-route.o)
 .text.uip_ds6_defrt_rm
                0x00207784       0x44 contiki-cc2538dk.a(uip-ds6-route.o)
                0x00207784                uip_ds6_defrt_rm
 .text.uip_ds6_defrt_periodic
                0x002077c8       0x34 contiki-cc2538dk.a(uip-ds6-route.o)
                0x002077c8                uip_ds6_defrt_periodic
 .text.uip_ds6_route_lookup
                0x002077fc       0x6c contiki-cc2538dk.a(uip-ds6-route.o)
                0x002077fc                uip_ds6_route_lookup
 .text.uip_ds6_defrt_add
                0x00207868       0x54 contiki-cc2538dk.a(uip-ds6-route.o)
                0x00207868                uip_ds6_defrt_add
 .text.uip_ds6_route_nexthop
                0x002078bc       0x1c contiki-cc2538dk.a(uip-ds6-route.o)
                0x002078bc                uip_ds6_route_nexthop
 .text.uip_ds6_route_rm
                0x002078d8       0x98 contiki-cc2538dk.a(uip-ds6-route.o)
                0x002078d8                uip_ds6_route_rm
 .text.rm_routelist
                0x00207970       0x2c contiki-cc2538dk.a(uip-ds6-route.o)
 .text.rm_routelist_callback
                0x0020799c        0x8 contiki-cc2538dk.a(uip-ds6-route.o)
 .text.uip_ds6_route_add
                0x002079a4       0xf4 contiki-cc2538dk.a(uip-ds6-route.o)
                0x002079a4                uip_ds6_route_add
 .text.uip_ds6_route_init
                0x00207a98       0x48 contiki-cc2538dk.a(uip-ds6-route.o)
                0x00207a98                uip_ds6_route_init
 .text.echo_reply_input
                0x00207ae0       0xe8 contiki-cc2538dk.a(uip-icmp6.o)
 .text.uip_icmp6_input
                0x00207bc8       0x3c contiki-cc2538dk.a(uip-icmp6.o)
                0x00207bc8                uip_icmp6_input
 .text.echo_request_input
                0x00207c04      0x108 contiki-cc2538dk.a(uip-icmp6.o)
 .text.uip_icmp6_echo_reply_callback_add
                0x00207d0c       0x18 contiki-cc2538dk.a(uip-icmp6.o)
                0x00207d0c                uip_icmp6_echo_reply_callback_add
 .text.uip_icmp6_register_input_handler
                0x00207d24       0x10 contiki-cc2538dk.a(uip-icmp6.o)
                0x00207d24                uip_icmp6_register_input_handler
 .text.uip_icmp6_init
                0x00207d34       0x18 contiki-cc2538dk.a(uip-icmp6.o)
                0x00207d34                uip_icmp6_init
 .text.uip_icmp6_send
                0x00207d4c       0x80 contiki-cc2538dk.a(uip-icmp6.o)
                0x00207d4c                uip_icmp6_send
 .text.uip_icmp6_error_output
                0x00207dcc      0x148 contiki-cc2538dk.a(uip-icmp6.o)
                0x00207dcc                uip_icmp6_error_output
 .text.uip_nd6_init
                0x00207f14       0x18 contiki-cc2538dk.a(uip-nd6.o)
                0x00207f14                uip_nd6_init
 .text.na_input
                0x00207f2c      0x1cc contiki-cc2538dk.a(uip-nd6.o)
 .text.create_llao
                0x002080f8       0x28 contiki-cc2538dk.a(uip-nd6.o)
 .text.ns_input
                0x00208120      0x228 contiki-cc2538dk.a(uip-nd6.o)
 .text.uip_nd6_ns_output
                0x00208348      0x12c contiki-cc2538dk.a(uip-nd6.o)
                0x00208348                uip_nd6_ns_output
 .text.tcpip_output
                0x00208474       0x14 contiki-cc2538dk.a(tcpip.o)
                0x00208474                tcpip_output
 .text.tcpip_set_outputfunc
                0x00208488        0xc contiki-cc2538dk.a(tcpip.o)
                0x00208488                tcpip_set_outputfunc
 .text.tcp_attach
                0x00208494       0x10 contiki-cc2538dk.a(tcpip.o)
                0x00208494                tcp_attach
 .text.tcp_unlisten
                0x002084a4       0x50 contiki-cc2538dk.a(tcpip.o)
                0x002084a4                tcp_unlisten
 .text.start_periodic_tcp_timer
                0x002084f4       0x18 contiki-cc2538dk.a(tcpip.o)
 .text.tcpip_uipcall
                0x0020850c       0x84 contiki-cc2538dk.a(tcpip.o)
                0x0020850c                tcpip_uipcall
 .text.tcpip_input
                0x00208590       0x24 contiki-cc2538dk.a(tcpip.o)
                0x00208590                tcpip_input
 .text.tcpip_icmp6_call
                0x002085b4       0x24 contiki-cc2538dk.a(tcpip.o)
                0x002085b4                tcpip_icmp6_call
 .text.tcpip_poll_tcp
                0x002085d8       0x14 contiki-cc2538dk.a(tcpip.o)
                0x002085d8                tcpip_poll_tcp
 .text.tcpip_ipv6_output
                0x002085ec      0x138 contiki-cc2538dk.a(tcpip.o)
                0x002085ec                tcpip_ipv6_output
 .text.process_thread_tcpip_process
                0x00208724      0x1f8 contiki-cc2538dk.a(tcpip.o)
 .text.tcp_connect
                0x0020891c       0x20 contiki-cc2538dk.a(tcpip.o)
                0x0020891c                tcp_connect
 .text.call_event
                0x0020893c       0x10 contiki-cc2538dk.a(tcp-socket.o)
 .text.relisten
                0x0020894c       0x14 contiki-cc2538dk.a(tcp-socket.o)
 .text.tcp_socket_close
                0x00208960       0x18 contiki-cc2538dk.a(tcp-socket.o)
                0x00208960                tcp_socket_close
 .text.tcp_socket_send
                0x00208978       0x38 contiki-cc2538dk.a(tcp-socket.o)
                0x00208978                tcp_socket_send
 .text.newdata  0x002089b0       0x58 contiki-cc2538dk.a(tcp-socket.o)
 .text.senddata
                0x00208a08       0x28 contiki-cc2538dk.a(tcp-socket.o)
 .text.process_thread_tcp_socket_process
                0x00208a30      0x208 contiki-cc2538dk.a(tcp-socket.o)
 .text.tcp_socket_unlisten
                0x00208c38       0x3c contiki-cc2538dk.a(tcp-socket.o)
                0x00208c38                tcp_socket_unlisten
 .text.tcp_socket_unregister
                0x00208c74       0x28 contiki-cc2538dk.a(tcp-socket.o)
                0x00208c74                tcp_socket_unregister
 .text.tcp_socket_connect
                0x00208c9c       0x4c contiki-cc2538dk.a(tcp-socket.o)
                0x00208c9c                tcp_socket_connect
 .text.tcp_socket_register
                0x00208ce8       0x6c contiki-cc2538dk.a(tcp-socket.o)
                0x00208ce8                tcp_socket_register
 .text.uip_debug_ipaddr_print
                0x00208d54       0x64 contiki-cc2538dk.a(uip-debug.o)
                0x00208d54                uip_debug_ipaddr_print
 .text.uiplib_ip6addrconv
                0x00208db8       0xd4 contiki-cc2538dk.a(uiplib.o)
                0x00208db8                uiplib_ip6addrconv
 .text.linkaddr_cmp
                0x00208e8c       0x14 contiki-cc2538dk.a(linkaddr.o)
                0x00208e8c                linkaddr_cmp
 .text.linkaddr_copy
                0x00208ea0        0xc contiki-cc2538dk.a(linkaddr.o)
                0x00208ea0                linkaddr_copy
 .text.item_from_index
                0x00208eac       0x18 contiki-cc2538dk.a(nbr-table.o)
 .text.index_from_key
                0x00208ec4       0x20 contiki-cc2538dk.a(nbr-table.o)
 .text.index_from_item
                0x00208ee4       0x18 contiki-cc2538dk.a(nbr-table.o)
 .text.item_from_key
                0x00208efc       0x14 contiki-cc2538dk.a(nbr-table.o)
 .text.key_from_item
                0x00208f10       0x20 contiki-cc2538dk.a(nbr-table.o)
 .text.nbr_get_bit
                0x00208f30       0x28 contiki-cc2538dk.a(nbr-table.o)
 .text.nbr_set_bit
                0x00208f58       0x40 contiki-cc2538dk.a(nbr-table.o)
 .text.nbr_table_register
                0x00208f98       0x28 contiki-cc2538dk.a(nbr-table.o)
                0x00208f98                nbr_table_register
 .text.nbr_table_remove
                0x00208fc0       0x2c contiki-cc2538dk.a(nbr-table.o)
                0x00208fc0                nbr_table_remove
 .text.nbr_table_lock
                0x00208fec       0x18 contiki-cc2538dk.a(nbr-table.o)
                0x00208fec                nbr_table_lock
 .text.nbr_table_unlock
                0x00209004       0x18 contiki-cc2538dk.a(nbr-table.o)
                0x00209004                nbr_table_unlock
 .text.nbr_table_get_lladdr
                0x0020901c       0x10 contiki-cc2538dk.a(nbr-table.o)
                0x0020901c                nbr_table_get_lladdr
 .text.index_from_lladdr
                0x0020902c       0x40 contiki-cc2538dk.a(nbr-table.o)
 .text.nbr_table_get_from_lladdr
                0x0020906c       0x2c contiki-cc2538dk.a(nbr-table.o)
                0x0020906c                nbr_table_get_from_lladdr
 .text.nbr_table_next
                0x00209098       0x34 contiki-cc2538dk.a(nbr-table.o)
                0x00209098                nbr_table_next
 .text.nbr_table_head
                0x002090cc       0x38 contiki-cc2538dk.a(nbr-table.o)
                0x002090cc                nbr_table_head
 .text.nbr_table_add_lladdr
                0x00209104      0x11c contiki-cc2538dk.a(nbr-table.o)
                0x00209104                nbr_table_add_lladdr
 .text.netstack_init
                0x00209220       0x2c contiki-cc2538dk.a(netstack.o)
                0x00209220                netstack_init
 .text.packetbuf_compact
                0x0020924c       0x44 contiki-cc2538dk.a(packetbuf.o)
                0x0020924c                packetbuf_compact
 .text.packetbuf_hdrreduce
                0x00209290       0x2c contiki-cc2538dk.a(packetbuf.o)
                0x00209290                packetbuf_hdrreduce
 .text.packetbuf_set_datalen
                0x002092bc        0xc contiki-cc2538dk.a(packetbuf.o)
                0x002092bc                packetbuf_set_datalen
 .text.packetbuf_dataptr
                0x002092c8       0x18 contiki-cc2538dk.a(packetbuf.o)
                0x002092c8                packetbuf_dataptr
 .text.packetbuf_hdrptr
                0x002092e0       0x14 contiki-cc2538dk.a(packetbuf.o)
                0x002092e0                packetbuf_hdrptr
 .text.packetbuf_datalen
                0x002092f4        0xc contiki-cc2538dk.a(packetbuf.o)
                0x002092f4                packetbuf_datalen
 .text.packetbuf_hdrlen
                0x00209300       0x1c contiki-cc2538dk.a(packetbuf.o)
                0x00209300                packetbuf_hdrlen
 .text.packetbuf_totlen
                0x0020931c       0x14 contiki-cc2538dk.a(packetbuf.o)
                0x0020931c                packetbuf_totlen
 .text.packetbuf_hdralloc
                0x00209330       0x28 contiki-cc2538dk.a(packetbuf.o)
                0x00209330                packetbuf_hdralloc
 .text.packetbuf_set_attr
                0x00209358       0x10 contiki-cc2538dk.a(packetbuf.o)
                0x00209358                packetbuf_set_attr
 .text.packetbuf_attr
                0x00209368        0xc contiki-cc2538dk.a(packetbuf.o)
                0x00209368                packetbuf_attr
 .text.packetbuf_addr
                0x00209374       0x10 contiki-cc2538dk.a(packetbuf.o)
                0x00209374                packetbuf_addr
 .text.packetbuf_holds_broadcast
                0x00209384       0x14 contiki-cc2538dk.a(packetbuf.o)
                0x00209384                packetbuf_holds_broadcast
 .text.packetbuf_set_addr
                0x00209398       0x18 contiki-cc2538dk.a(packetbuf.o)
                0x00209398                packetbuf_set_addr
 .text.packetbuf_attr_clear
                0x002093b0       0x34 contiki-cc2538dk.a(packetbuf.o)
                0x002093b0                packetbuf_attr_clear
 .text.packetbuf_clear
                0x002093e4       0x38 contiki-cc2538dk.a(packetbuf.o)
                0x002093e4                packetbuf_clear
 .text.packetbuf_attr_copyfrom
                0x0020941c       0x24 contiki-cc2538dk.a(packetbuf.o)
                0x0020941c                packetbuf_attr_copyfrom
 .text.packetbuf_attr_copyto
                0x00209440       0x20 contiki-cc2538dk.a(packetbuf.o)
                0x00209440                packetbuf_attr_copyto
 .text.packetbuf_copyto
                0x00209460       0x5c contiki-cc2538dk.a(packetbuf.o)
                0x00209460                packetbuf_copyto
 .text.packetbuf_copyfrom
                0x002094bc       0x2c contiki-cc2538dk.a(packetbuf.o)
                0x002094bc                packetbuf_copyfrom
 .text.queuebuf_attr
                0x002094e8        0xc contiki-cc2538dk.a(queuebuf.o)
                0x002094e8                queuebuf_attr
 .text.queuebuf_to_packetbuf
                0x002094f4       0x2c contiki-cc2538dk.a(queuebuf.o)
                0x002094f4                queuebuf_to_packetbuf
 .text.queuebuf_free
                0x00209520       0x28 contiki-cc2538dk.a(queuebuf.o)
                0x00209520                queuebuf_free
 .text.queuebuf_update_attr_from_packetbuf
                0x00209548       0x10 contiki-cc2538dk.a(queuebuf.o)
                0x00209548                queuebuf_update_attr_from_packetbuf
 .text.queuebuf_update_from_packetbuf
                0x00209558       0x1c contiki-cc2538dk.a(queuebuf.o)
                0x00209558                queuebuf_update_from_packetbuf
 .text.queuebuf_new_from_packetbuf
                0x00209574       0x44 contiki-cc2538dk.a(queuebuf.o)
                0x00209574                queuebuf_new_from_packetbuf
 .text.queuebuf_numfree
                0x002095b8       0x10 contiki-cc2538dk.a(queuebuf.o)
                0x002095b8                queuebuf_numfree
 .text.queuebuf_init
                0x002095c8       0x18 contiki-cc2538dk.a(queuebuf.o)
                0x002095c8                queuebuf_init
 .text.on       0x002095e0       0x28 contiki-cc2538dk.a(contikimac.o)
 .text.off      0x00209608       0x30 contiki-cc2538dk.a(contikimac.o)
 .text.powercycle_turn_radio_off
                0x00209638       0x1c contiki-cc2538dk.a(contikimac.o)
 .text.recv_burst_off
                0x00209654       0x14 contiki-cc2538dk.a(contikimac.o)
 .text.turn_off
                0x00209668       0x34 contiki-cc2538dk.a(contikimac.o)
 .text.duty_cycle
                0x0020969c        0x4 contiki-cc2538dk.a(contikimac.o)
 .text.turn_on  0x002096a0       0x3c contiki-cc2538dk.a(contikimac.o)
 .text.schedule_powercycle_fixed
                0x002096dc       0x38 contiki-cc2538dk.a(contikimac.o)
 .text.powercycle
                0x00209714      0x1f8 contiki-cc2538dk.a(contikimac.o)
 .text.init     0x0020990c       0x3c contiki-cc2538dk.a(contikimac.o)
 .text.input_packet
                0x00209948       0x98 contiki-cc2538dk.a(contikimac.o)
 .text.send_packet
                0x002099e0      0x1d4 contiki-cc2538dk.a(contikimac.o)
 .text.qsend_list
                0x00209bb4       0xc8 contiki-cc2538dk.a(contikimac.o)
 .text.qsend_packet
                0x00209c7c       0x20 contiki-cc2538dk.a(contikimac.o)
 .text.default_timebase
                0x00209c9c       0x14 contiki-cc2538dk.a(csma.o)
 .text.input_packet
                0x00209cb0       0x10 contiki-cc2538dk.a(csma.o)
 .text.on       0x00209cc0       0x10 contiki-cc2538dk.a(csma.o)
 .text.off      0x00209cd0       0x10 contiki-cc2538dk.a(csma.o)
 .text.channel_check_interval
                0x00209ce0       0x10 contiki-cc2538dk.a(csma.o)
 .text.transmit_packet_list
                0x00209cf0       0x24 contiki-cc2538dk.a(csma.o)
 .text.send_packet
                0x00209d14      0x154 contiki-cc2538dk.a(csma.o)
 .text.free_packet
                0x00209e68       0x7c contiki-cc2538dk.a(csma.o)
 .text.packet_sent
                0x00209ee4       0xdc contiki-cc2538dk.a(csma.o)
 .text.init     0x00209fc0       0x24 contiki-cc2538dk.a(csma.o)
 .text.parse    0x00209fe4       0x90 contiki-cc2538dk.a(framer-802154.o)
 .text.create_frame
                0x0020a074      0x118 contiki-cc2538dk.a(framer-802154.o)
 .text.create   0x0020a18c        0xc contiki-cc2538dk.a(framer-802154.o)
 .text.hdr_length
                0x0020a198        0xc contiki-cc2538dk.a(framer-802154.o)
 .text.framer_canonical_create_and_secure
                0x0020a1a4       0x2c contiki-cc2538dk.a(framer.o)
                0x0020a1a4                framer_canonical_create_and_secure
 .text.mac_call_sent_callback
                0x0020a1d0       0x10 contiki-cc2538dk.a(mac.o)
                0x0020a1d0                mac_call_sent_callback
 .text.mac_sequence_is_duplicate
                0x0020a1e0       0x38 contiki-cc2538dk.a(mac-sequence.o)
                0x0020a1e0                mac_sequence_is_duplicate
 .text.mac_sequence_register_seqno
                0x0020a218       0x64 contiki-cc2538dk.a(mac-sequence.o)
                0x0020a218                mac_sequence_register_seqno
 .text.bootstrap
                0x0020a27c        0x8 contiki-cc2538dk.a(nullsec.o)
 .text.on_frame_created
                0x0020a284        0x4 contiki-cc2538dk.a(nullsec.o)
 .text.input    0x0020a288       0x10 contiki-cc2538dk.a(nullsec.o)
 .text.get_overhead
                0x0020a298        0x4 contiki-cc2538dk.a(nullsec.o)
 .text.send     0x0020a29c       0x20 contiki-cc2538dk.a(nullsec.o)
 .text.netstack_aes_set_key
                0x0020a2bc       0x1c contiki-cc2538dk.a(netstack-aes.o)
                0x0020a2bc                netstack_aes_set_key
 .text.rpl_get_mode
                0x0020a2d8        0xc contiki-cc2538dk.a(rpl.o)
                0x0020a2d8                rpl_get_mode
 .text.rpl_init
                0x0020a2e4       0x54 contiki-cc2538dk.a(rpl.o)
                0x0020a2e4                rpl_init
 .text.rpl_ipv6_neighbor_callback
                0x0020a338       0x3c contiki-cc2538dk.a(rpl.o)
                0x0020a338                rpl_ipv6_neighbor_callback
 .text.rpl_link_neighbor_callback
                0x0020a374       0x80 contiki-cc2538dk.a(rpl.o)
                0x0020a374                rpl_link_neighbor_callback
 .text.rpl_add_route
                0x0020a3f4       0x2c contiki-cc2538dk.a(rpl.o)
                0x0020a3f4                rpl_add_route
 .text.rpl_remove_routes_by_nexthop
                0x0020a420       0x38 contiki-cc2538dk.a(rpl.o)
                0x0020a420                rpl_remove_routes_by_nexthop
 .text.rpl_remove_routes
                0x0020a458       0x20 contiki-cc2538dk.a(rpl.o)
                0x0020a458                rpl_remove_routes
 .text.rpl_purge_routes
                0x0020a478       0x68 contiki-cc2538dk.a(rpl.o)
                0x0020a478                rpl_purge_routes
 .text.lollipop_greater_than
                0x0020a4e0       0x3c contiki-cc2538dk.a(rpl-dag.o)
 .text.acceptable_rank
                0x0020a51c       0x34 contiki-cc2538dk.a(rpl-dag.o)
 .text.rpl_get_any_dag
                0x0020a550       0x18 contiki-cc2538dk.a(rpl-dag.o)
                0x0020a550                rpl_get_any_dag
 .text.rpl_get_instance
                0x0020a568       0x1c contiki-cc2538dk.a(rpl-dag.o)
                0x0020a568                rpl_get_instance
 .text.rpl_find_of
                0x0020a584       0x14 contiki-cc2538dk.a(rpl-dag.o)
                0x0020a584                rpl_find_of
 .text.rpl_lock_parent
                0x0020a598       0x14 contiki-cc2538dk.a(rpl-dag.o)
                0x0020a598                rpl_lock_parent
 .text.rpl_repair_root
                0x0020a5ac       0x4c contiki-cc2538dk.a(rpl-dag.o)
                0x0020a5ac                rpl_repair_root
 .text.find_parent_any_dag_any_instance
                0x0020a5f8       0x1c contiki-cc2538dk.a(rpl-dag.o)
 .text.find_parent_dag
                0x0020a614       0x10 contiki-cc2538dk.a(rpl-dag.o)
 .text.rpl_find_parent_any_dag
                0x0020a624       0x20 contiki-cc2538dk.a(rpl-dag.o)
                0x0020a624                rpl_find_parent_any_dag
 .text.rpl_find_parent
                0x0020a644       0x1c contiki-cc2538dk.a(rpl-dag.o)
                0x0020a644                rpl_find_parent
 .text.rpl_get_parent
                0x0020a660       0x14 contiki-cc2538dk.a(rpl-dag.o)
                0x0020a660                rpl_get_parent
 .text.rpl_set_preferred_parent
                0x0020a674       0x28 contiki-cc2538dk.a(rpl-dag.o)
 .text.rpl_select_parent
                0x0020a69c       0x70 contiki-cc2538dk.a(rpl-dag.o)
                0x0020a69c                rpl_select_parent
 .text.set_ip_from_prefix
                0x0020a70c       0x2c contiki-cc2538dk.a(rpl-dag.o)
 .text.check_prefix
                0x0020a738       0x58 contiki-cc2538dk.a(rpl-dag.o)
 .text.rpl_set_prefix
                0x0020a790       0x70 contiki-cc2538dk.a(rpl-dag.o)
                0x0020a790                rpl_set_prefix
 .text.rpl_set_default_route
                0x0020a800       0x48 contiki-cc2538dk.a(rpl-dag.o)
                0x0020a800                rpl_set_default_route
 .text.rpl_nullify_parent
                0x0020a848       0x44 contiki-cc2538dk.a(rpl-dag.o)
                0x0020a848                rpl_nullify_parent
 .text.rpl_local_repair
                0x0020a88c       0x60 contiki-cc2538dk.a(rpl-dag.o)
                0x0020a88c                rpl_local_repair
 .text.rpl_remove_parent
                0x0020a8ec       0x18 contiki-cc2538dk.a(rpl-dag.o)
                0x0020a8ec                rpl_remove_parent
 .text.remove_parents
                0x0020a904       0x38 contiki-cc2538dk.a(rpl-dag.o)
 .text.nbr_callback
                0x0020a93c        0x8 contiki-cc2538dk.a(rpl-dag.o)
 .text.rpl_alloc_instance
                0x0020a944       0x48 contiki-cc2538dk.a(rpl-dag.o)
                0x0020a944                rpl_alloc_instance
 .text.rpl_alloc_dag
                0x0020a98c       0x48 contiki-cc2538dk.a(rpl-dag.o)
                0x0020a98c                rpl_alloc_dag
 .text.rpl_get_nbr
                0x0020a9d4       0x24 contiki-cc2538dk.a(rpl-dag.o)
                0x0020a9d4                rpl_get_nbr
 .text.rpl_add_parent
                0x0020a9f8       0x44 contiki-cc2538dk.a(rpl-dag.o)
                0x0020a9f8                rpl_add_parent
 .text.rpl_join_instance
                0x0020aa3c      0x114 contiki-cc2538dk.a(rpl-dag.o)
                0x0020aa3c                rpl_join_instance
 .text.rpl_get_parent_ipaddr
                0x0020ab50       0x18 contiki-cc2538dk.a(rpl-dag.o)
                0x0020ab50                rpl_get_parent_ipaddr
 .text.rpl_move_parent
                0x0020ab68       0x48 contiki-cc2538dk.a(rpl-dag.o)
                0x0020ab68                rpl_move_parent
 .text.rpl_select_dag
                0x0020abb0      0x144 contiki-cc2538dk.a(rpl-dag.o)
                0x0020abb0                rpl_select_dag
 .text.rpl_process_parent_event
                0x0020acf4       0x3c contiki-cc2538dk.a(rpl-dag.o)
                0x0020acf4                rpl_process_parent_event
 .text.rpl_recalculate_ranks
                0x0020ad30       0x40 contiki-cc2538dk.a(rpl-dag.o)
                0x0020ad30                rpl_recalculate_ranks
 .text.rpl_add_dag
                0x0020ad70      0x110 contiki-cc2538dk.a(rpl-dag.o)
                0x0020ad70                rpl_add_dag
 .text.rpl_process_dio
                0x0020ae80      0x28c contiki-cc2538dk.a(rpl-dag.o)
                0x0020ae80                rpl_process_dio
 .text.rpl_dag_init
                0x0020b10c       0x18 contiki-cc2538dk.a(rpl-dag.o)
                0x0020b10c                rpl_dag_init
 .text.get32    0x0020b124       0x1c contiki-cc2538dk.a(rpl-icmp6.o)
 .text.set32    0x0020b140       0x18 contiki-cc2538dk.a(rpl-icmp6.o)
 .text.get16    0x0020b158        0xc contiki-cc2538dk.a(rpl-icmp6.o)
 .text.set16    0x0020b164        0xc contiki-cc2538dk.a(rpl-icmp6.o)
 .text.dao_ack_input
                0x0020b170       0x10 contiki-cc2538dk.a(rpl-icmp6.o)
 .text.rpl_icmp6_register_handlers
                0x0020b180       0x2c contiki-cc2538dk.a(rpl-icmp6.o)
                0x0020b180                rpl_icmp6_register_handlers
 .text.dao_ack_output
                0x0020b1ac       0x30 contiki-cc2538dk.a(rpl-icmp6.o)
                0x0020b1ac                dao_ack_output
 .text.dio_output
                0x0020b1dc      0x210 contiki-cc2538dk.a(rpl-icmp6.o)
                0x0020b1dc                dio_output
 .text.dis_output
                0x0020b3ec       0x58 contiki-cc2538dk.a(rpl-icmp6.o)
                0x0020b3ec                dis_output
 .text.dao_input
                0x0020b444      0x244 contiki-cc2538dk.a(rpl-icmp6.o)
 .text.dio_input
                0x0020b688      0x24c contiki-cc2538dk.a(rpl-icmp6.o)
 .text.dis_input
                0x0020b8d4       0x4c contiki-cc2538dk.a(rpl-icmp6.o)
 .text.dao_output_target
                0x0020b920       0xc4 contiki-cc2538dk.a(rpl-icmp6.o)
                0x0020b920                dao_output_target
 .text.dao_output
                0x0020b9e4       0x50 contiki-cc2538dk.a(rpl-icmp6.o)
                0x0020b9e4                dao_output
 .text.rpl_schedule_probing
                0x0020ba34       0x2c contiki-cc2538dk.a(rpl-timers.o)
                0x0020ba34                rpl_schedule_probing
 .text.new_dio_interval
                0x0020ba60       0x58 contiki-cc2538dk.a(rpl-timers.o)
 .text.rpl_reset_dio_timer
                0x0020bab8       0x20 contiki-cc2538dk.a(rpl-timers.o)
                0x0020bab8                rpl_reset_dio_timer
 .text.rpl_reset_periodic_timer
                0x0020bad8       0x34 contiki-cc2538dk.a(rpl-timers.o)
                0x0020bad8                rpl_reset_periodic_timer
 .text.handle_probing_timer
                0x0020bb0c       0xe4 contiki-cc2538dk.a(rpl-timers.o)
 .text.set_dao_lifetime_timer
                0x0020bbf0       0x38 contiki-cc2538dk.a(rpl-timers.o)
 .text.schedule_dao
                0x0020bc28       0x50 contiki-cc2538dk.a(rpl-timers.o)
 .text.rpl_schedule_dao
                0x0020bc78        0xc contiki-cc2538dk.a(rpl-timers.o)
                0x0020bc78                rpl_schedule_dao
 .text.handle_dio_timer
                0x0020bc84       0x7c contiki-cc2538dk.a(rpl-timers.o)
 .text.handle_dao_timer
                0x0020bd00       0x54 contiki-cc2538dk.a(rpl-timers.o)
 .text.handle_periodic_timer
                0x0020bd54       0x34 contiki-cc2538dk.a(rpl-timers.o)
 .text.reset    0x0020bd88        0x4 contiki-cc2538dk.a(rpl-mrhof.o)
 .text.best_dag
                0x0020bd8c       0x24 contiki-cc2538dk.a(rpl-mrhof.o)
 .text.update_metric_container
                0x0020bdb0        0x8 contiki-cc2538dk.a(rpl-mrhof.o)
 .text.calculate_rank
                0x0020bdb8       0x34 contiki-cc2538dk.a(rpl-mrhof.o)
 .text.calculate_path_metric
                0x0020bdec       0x1c contiki-cc2538dk.a(rpl-mrhof.o)
 .text.best_parent
                0x0020be08       0x40 contiki-cc2538dk.a(rpl-mrhof.o)
 .text.neighbor_link_callback
                0x0020be48       0x50 contiki-cc2538dk.a(rpl-mrhof.o)
 .text.rpl_invert_header
                0x0020be98       0x78 contiki-cc2538dk.a(rpl-ext-header.)
                0x0020be98                rpl_invert_header
 .text.rpl_update_header_final
                0x0020bf10       0x90 contiki-cc2538dk.a(rpl-ext-header.)
                0x0020bf10                rpl_update_header_final
 .text.rpl_update_header_empty
                0x0020bfa0      0x16c contiki-cc2538dk.a(rpl-ext-header.)
                0x0020bfa0                rpl_update_header_empty
 .text.rpl_insert_header
                0x0020c10c       0x20 contiki-cc2538dk.a(rpl-ext-header.)
                0x0020c10c                rpl_insert_header
 .text.rpl_verify_header
                0x0020c12c       0xa8 contiki-cc2538dk.a(rpl-ext-header.)
                0x0020c12c                rpl_verify_header
 .text.gpio_set
                0x0020c1d4        0x8 contiki-cc2538dk.a(oled-arch.o)
 .text.gpio_reset
                0x0020c1dc        0x8 contiki-cc2538dk.a(oled-arch.o)
 .text.OLED_WrCmd
                0x0020c1e4       0x68 contiki-cc2538dk.a(oled-arch.o)
                0x0020c1e4                OLED_WrCmd
 .text.OLED_Display_Off
                0x0020c24c       0x18 contiki-cc2538dk.a(oled-arch.o)
                0x0020c24c                OLED_Display_Off
 .text.OLED_Init
                0x0020c264       0xe8 contiki-cc2538dk.a(oled-arch.o)
                0x0020c264                OLED_Init
 .text.gpio_set1
                0x0020c34c        0x8 contiki-cc2538dk.a(oled.o)
 .text.gpio_reset1
                0x0020c354        0x8 contiki-cc2538dk.a(oled.o)
 .text.OLED_WrDat1
                0x0020c35c       0x64 contiki-cc2538dk.a(oled.o)
                0x0020c35c                OLED_WrDat1
 .text.OLED_WrCmd1
                0x0020c3c0       0x64 contiki-cc2538dk.a(oled.o)
                0x0020c3c0                OLED_WrCmd1
 .text.OLED_Fill1
                0x0020c424       0x34 contiki-cc2538dk.a(oled.o)
                0x0020c424                OLED_Fill1
 .text.OLED_Display_Off1
                0x0020c458       0x18 contiki-cc2538dk.a(oled.o)
                0x0020c458                OLED_Display_Off1
 .text.OLED_Init1
                0x0020c470       0xe0 contiki-cc2538dk.a(oled.o)
                0x0020c470                OLED_Init1
 .text.stimer_expired
                0x0020c550       0x20 contiki-cc2538dk.a(stimer.o)
                0x0020c550                stimer_expired
 .text.stimer_set
                0x0020c570       0x10 contiki-cc2538dk.a(stimer.o)
                0x0020c570                stimer_set
 .text.memb_alloc
                0x0020c580       0x2c contiki-cc2538dk.a(memb.o)
                0x0020c580                memb_alloc
 .text.memb_free
                0x0020c5ac       0x30 contiki-cc2538dk.a(memb.o)
                0x0020c5ac                memb_free
 .text.memb_inmemb
                0x0020c5dc       0x20 contiki-cc2538dk.a(memb.o)
                0x0020c5dc                memb_inmemb
 .text.memb_numfree
                0x0020c5fc       0x1c contiki-cc2538dk.a(memb.o)
                0x0020c5fc                memb_numfree
 .text.memb_init
                0x0020c618       0x20 contiki-cc2538dk.a(memb.o)
                0x0020c618                memb_init
 .text.addr_len
                0x0020c638       0x10 contiki-cc2538dk.a(frame802154.o)
 .text.frame802154_parse
                0x0020c648      0x128 contiki-cc2538dk.a(frame802154.o)
                0x0020c648                frame802154_parse
 .text.field_len
                0x0020c770       0x68 contiki-cc2538dk.a(frame802154.o)
 .text.frame802154_create
                0x0020c7d8       0xdc contiki-cc2538dk.a(frame802154.o)
                0x0020c7d8                frame802154_create
 .text.frame802154_hdrlen
                0x0020c8b4       0x2c contiki-cc2538dk.a(frame802154.o)
                0x0020c8b4                frame802154_hdrlen
 .text          0x0020c8e0       0x2c /home/user/CodeSourcery/Sourcery_G++_Lite/bin/../lib/gcc/arm-none-eabi/4.3.2/thumb2/libgcc.a(_aeabi_uldivmod.o)
                0x0020c8e0                __aeabi_uldivmod
 .text          0x0020c90c       0x60 /home/user/CodeSourcery/Sourcery_G++_Lite/bin/../lib/gcc/arm-none-eabi/4.3.2/thumb2/libgcc.a(bpabi.o)
                0x0020c90c                __gnu_uldivmod_helper
                0x0020c93c                __gnu_ldivmod_helper
 .text          0x0020c96c        0x4 /home/user/CodeSourcery/Sourcery_G++_Lite/bin/../lib/gcc/arm-none-eabi/4.3.2/thumb2/libgcc.a(_dvmd_tls.o)
                0x0020c96c                __aeabi_ldiv0
                0x0020c96c                __aeabi_idiv0
 .text          0x0020c970      0x424 /home/user/CodeSourcery/Sourcery_G++_Lite/bin/../lib/gcc/arm-none-eabi/4.3.2/thumb2/libgcc.a(_divdi3.o)
                0x0020c970                __divdi3
 .text          0x0020cd94      0x3e4 /home/user/CodeSourcery/Sourcery_G++_Lite/bin/../lib/gcc/arm-none-eabi/4.3.2/thumb2/libgcc.a(_udivdi3.o)
                0x0020cd94                __udivdi3
 .text          0x0020d178       0x8c /home/user/CodeSourcery/Sourcery_G++_Lite/bin/../lib/gcc/arm-none-eabi/4.3.2/thumb2/libgcc.a(_udivsi3.o)
                0x0020d178                __udivsi3
                0x0020d178                __aeabi_uidiv
                0x0020d1f0                __aeabi_uidivmod
 .text          0x0020d204       0x60 /home/user/CodeSourcery/Sourcery_G++_Lite/bin/../lib/gcc/arm-none-eabi/4.3.2/../../../../arm-none-eabi/lib/thumb2/libc.a(lib_a-memcmp.o)
                0x0020d204                memcmp
 .text          0x0020d264       0x98 /home/user/CodeSourcery/Sourcery_G++_Lite/bin/../lib/gcc/arm-none-eabi/4.3.2/../../../../arm-none-eabi/lib/thumb2/libc.a(lib_a-memcpy.o)
                0x0020d264                memcpy
 .text          0x0020d2fc       0xc0 /home/user/CodeSourcery/Sourcery_G++_Lite/bin/../lib/gcc/arm-none-eabi/4.3.2/../../../../arm-none-eabi/lib/thumb2/libc.a(lib_a-memmove.o)
                0x0020d2fc                memmove
 .text          0x0020d3bc       0x88 /home/user/CodeSourcery/Sourcery_G++_Lite/bin/../lib/gcc/arm-none-eabi/4.3.2/../../../../arm-none-eabi/lib/thumb2/libc.a(lib_a-memset.o)
                0x0020d3bc                memset
 .text          0x0020d444       0x34 /home/user/CodeSourcery/Sourcery_G++_Lite/bin/../lib/gcc/arm-none-eabi/4.3.2/../../../../arm-none-eabi/lib/thumb2/libc.a(lib_a-strlen.o)
                0x0020d444                strlen
 .text          0x0020d478       0x88 /home/user/CodeSourcery/Sourcery_G++_Lite/bin/../lib/gcc/arm-none-eabi/4.3.2/../../../../arm-none-eabi/lib/thumb2/libc.a(lib_a-strncasecmp.o)
                0x0020d478                strncasecmp
 .text          0x0020d500       0x88 /home/user/CodeSourcery/Sourcery_G++_Lite/bin/../lib/gcc/arm-none-eabi/4.3.2/../../../../arm-none-eabi/lib/thumb2/libc.a(lib_a-strncmp.o)
                0x0020d500                strncmp
 *(SORT(.rodata*))
 .rodata.autostart_processes
                0x0020d588       0x14 mqtt-demo.co
                0x0020d588                autostart_processes
 .rodata.broker_ip
                0x0020d59c        0x4 mqtt-demo.co
 .rodata.button_select_sensor
                0x0020d5a0       0x10 contiki-cc2538dk.a(button-sensor.o)
                0x0020d5a0                button_select_sensor
 .rodata.button_up_sensor
                0x0020d5b0       0x10 contiki-cc2538dk.a(button-sensor.o)
                0x0020d5b0                button_up_sensor
 .rodata.button_left_sensor
                0x0020d5c0       0x10 contiki-cc2538dk.a(button-sensor.o)
                0x0020d5c0                button_left_sensor
 .rodata.button_right_sensor
                0x0020d5d0       0x10 contiki-cc2538dk.a(button-sensor.o)
                0x0020d5d0                button_right_sensor
 .rodata.button_down_sensor
                0x0020d5e0       0x10 contiki-cc2538dk.a(button-sensor.o)
                0x0020d5e0                button_down_sensor
 .rodata.als_sensor
                0x0020d5f0       0x10 contiki-cc2538dk.a(als-sensor.o)
                0x0020d5f0                als_sensor
 .rodata.uart_regs
                0x0020d600       0x58 contiki-cc2538dk.a(uart.o)
 .rodata.cc2538_rf_driver
                0x0020d658       0x38 contiki-cc2538dk.a(cc2538-rf.o)
                0x0020d658                cc2538_rf_driver
 .rodata.output_power
                0x0020d690       0x70 contiki-cc2538dk.a(cc2538-rf.o)
 .rodata.cc2538_temp_sensor
                0x0020d700       0x10 contiki-cc2538dk.a(cc2538-temp-sen)
                0x0020d700                cc2538_temp_sensor
 .rodata.vdd3_sensor
                0x0020d710       0x10 contiki-cc2538dk.a(vdd3-sensor.o)
                0x0020d710                vdd3_sensor
 .rodata.sicslowpan_driver
                0x0020d720        0xc contiki-cc2538dk.a(sicslowpan.o)
                0x0020d720                sicslowpan_driver
 .rodata.packetbuf
                0x0020d72c        0x4 contiki-cc2538dk.a(packetbuf.o)
 .rodata.contikimac_driver
                0x0020d730       0x20 contiki-cc2538dk.a(contikimac.o)
                0x0020d730                contikimac_driver
 .rodata.csma_driver
                0x0020d750       0x1c contiki-cc2538dk.a(csma.o)
                0x0020d750                csma_driver
 .rodata.framer_802154
                0x0020d76c       0x10 contiki-cc2538dk.a(framer-802154.o)
                0x0020d76c                framer_802154
 .rodata.nullsec_driver
                0x0020d77c       0x18 contiki-cc2538dk.a(nullsec.o)
                0x0020d77c                nullsec_driver
 .rodata.str1.1
                0x0020d794      0x37d mqtt-demo.co
                                0x384 (size before relaxing)
 .rodata.str1.1
                0x0020db11       0x14 contiki-cc2538dk.a(mqtt.o)
 .rodata.str1.1
                0x0020db25       0x66 contiki-cc2538dk.a(contiki-main.o)
                                 0x84 (size before relaxing)
 .rodata.str1.1
                0x0020db8b        0x8 contiki-cc2538dk.a(sensors.o)
 .rodata.str1.1
                0x0020db93        0x7 contiki-cc2538dk.a(button-sensor.o)
 .rodata.str1.1
                0x0020db9a        0x4 contiki-cc2538dk.a(als-sensor.o)
 .rodata.str1.1
                0x0020db9e       0x11 contiki-cc2538dk.a(cc2538-rf.o)
 .rodata.str1.1
                0x0020dbaf       0x14 contiki-cc2538dk.a(cc2538-temp-sen)
 .rodata.str1.1
                0x0020dbc3        0x5 contiki-cc2538dk.a(vdd3-sensor.o)
 .rodata.buffer.1352
                0x0020dbc8       0x10 contiki-cc2538dk.a(strformat.o)
 .rodata.str1.1
                0x0020dbd8       0x35 contiki-cc2538dk.a(strformat.o)
                                 0x37 (size before relaxing)
 .rodata.buffer.1366
                0x0020dc0d       0x10 contiki-cc2538dk.a(strformat.o)
 .rodata.str1.1
                0x0020dc1d        0xf contiki-cc2538dk.a(ctimer.o)
 .rodata.str1.1
                0x0020dc2c        0xc contiki-cc2538dk.a(etimer.o)
 .rodata.str1.1
                0x0020dc38        0xe contiki-cc2538dk.a(serial-line.o)
 .rodata.C.44.4695
                0x0020dc46        0x2 contiki-cc2538dk.a(sicslowpan.o)
 .rodata.ttl_values
                0x0020dc48        0x4 contiki-cc2538dk.a(sicslowpan.o)
 .rodata.unc_llconf
                0x0020dc4c        0x4 contiki-cc2538dk.a(sicslowpan.o)
                0x0020dc4c                unc_llconf
 .rodata.llprefix
                0x0020dc50        0x2 contiki-cc2538dk.a(sicslowpan.o)
                0x0020dc50                llprefix
 .rodata.unc_mxconf
                0x0020dc52        0x4 contiki-cc2538dk.a(sicslowpan.o)
                0x0020dc52                unc_mxconf
 .rodata.str1.1
                0x0020dc56        0xb contiki-cc2538dk.a(sicslowpan.o)
 .rodata.unc_ctxconf
                0x0020dc61        0x4 contiki-cc2538dk.a(sicslowpan.o)
                0x0020dc61                unc_ctxconf
 .rodata.str1.1
                0x0020dc65        0xd contiki-cc2538dk.a(tcpip.o)
 .rodata.str1.1
                0x0020dc72       0x99 contiki-cc2538dk.a(tcp-socket.o)
 .rodata.str1.1
                0x0020dd0b       0x1e contiki-cc2538dk.a(uip-debug.o)
                                 0x29 (size before relaxing)
 .rodata.linkaddr_null
                0x0020dd29        0x8 contiki-cc2538dk.a(linkaddr.o)
                0x0020dd29                linkaddr_null
 .rodata.str1.1
                0x0020dd31        0xb contiki-cc2538dk.a(contikimac.o)
 .rodata.str1.1
                0x0020dd3c        0x5 contiki-cc2538dk.a(csma.o)
 .rodata.str1.1
                0x0020dd41        0x8 contiki-cc2538dk.a(nullsec.o)
 .rodata        0x0020dd49      0x100 /home/user/CodeSourcery/Sourcery_G++_Lite/bin/../lib/gcc/arm-none-eabi/4.3.2/thumb2/libgcc.a(_clz.o)
                0x0020dd49                __clz_tab
 .rodata        0x0020de49      0x101 /home/user/CodeSourcery/Sourcery_G++_Lite/bin/../lib/gcc/arm-none-eabi/4.3.2/../../../../arm-none-eabi/lib/thumb2/libc.a(lib_a-ctype_.o)
                0x0020de49                _ctype_
                0x0020df4a                _etext = .

.glue_7         0x0020df4c        0x0 load address 0x0020df4a
 .glue_7        0x0020df4c        0x0 obj_cc2538dk/startup-gcc.o
 .glue_7        0x0020df4c        0x0 mqtt-demo.co
 .glue_7        0x0020df4c        0x0 contiki-cc2538dk.a(mqtt.o)
 .glue_7        0x0020df4c        0x0 contiki-cc2538dk.a(leds.o)
 .glue_7        0x0020df4c        0x0 contiki-cc2538dk.a(leds-arch.o)
 .glue_7        0x0020df4c        0x0 contiki-cc2538dk.a(contiki-main.o)
 .glue_7        0x0020df4c        0x0 contiki-cc2538dk.a(sensors.o)
 .glue_7        0x0020df4c        0x0 contiki-cc2538dk.a(smartrf-sensors)
 .glue_7        0x0020df4c        0x0 contiki-cc2538dk.a(button-sensor.o)
 .glue_7        0x0020df4c        0x0 contiki-cc2538dk.a(als-sensor.o)
 .glue_7        0x0020df4c        0x0 contiki-cc2538dk.a(clock.o)
 .glue_7        0x0020df4c        0x0 contiki-cc2538dk.a(rtimer-arch.o)
 .glue_7        0x0020df4c        0x0 contiki-cc2538dk.a(uart.o)
 .glue_7        0x0020df4c        0x0 contiki-cc2538dk.a(watchdog.o)
 .glue_7        0x0020df4c        0x0 contiki-cc2538dk.a(nvic.o)
 .glue_7        0x0020df4c        0x0 contiki-cc2538dk.a(cpu.o)
 .glue_7        0x0020df4c        0x0 contiki-cc2538dk.a(sys-ctrl.o)
 .glue_7        0x0020df4c        0x0 contiki-cc2538dk.a(gpio.o)
 .glue_7        0x0020df4c        0x0 contiki-cc2538dk.a(ioc.o)
 .glue_7        0x0020df4c        0x0 contiki-cc2538dk.a(adc.o)
 .glue_7        0x0020df4c        0x0 contiki-cc2538dk.a(crypto.o)
 .glue_7        0x0020df4c        0x0 contiki-cc2538dk.a(cc2538-rf.o)
 .glue_7        0x0020df4c        0x0 contiki-cc2538dk.a(udma.o)
 .glue_7        0x0020df4c        0x0 contiki-cc2538dk.a(lpm.o)
 .glue_7        0x0020df4c        0x0 contiki-cc2538dk.a(dbg.o)
 .glue_7        0x0020df4c        0x0 contiki-cc2538dk.a(ieee-addr.o)
 .glue_7        0x0020df4c        0x0 contiki-cc2538dk.a(cc2538-temp-sen)
 .glue_7        0x0020df4c        0x0 contiki-cc2538dk.a(vdd3-sensor.o)
 .glue_7        0x0020df4c        0x0 contiki-cc2538dk.a(dbg-printf.o)
 .glue_7        0x0020df4c        0x0 contiki-cc2538dk.a(dbg-snprintf.o)
 .glue_7        0x0020df4c        0x0 contiki-cc2538dk.a(strformat.o)
 .glue_7        0x0020df4c        0x0 contiki-cc2538dk.a(autostart.o)
 .glue_7        0x0020df4c        0x0 contiki-cc2538dk.a(ctimer.o)
 .glue_7        0x0020df4c        0x0 contiki-cc2538dk.a(energest.o)
 .glue_7        0x0020df4c        0x0 contiki-cc2538dk.a(etimer.o)
 .glue_7        0x0020df4c        0x0 contiki-cc2538dk.a(process.o)
 .glue_7        0x0020df4c        0x0 contiki-cc2538dk.a(rtimer.o)
 .glue_7        0x0020df4c        0x0 contiki-cc2538dk.a(timer.o)
 .glue_7        0x0020df4c        0x0 contiki-cc2538dk.a(serial-line.o)
 .glue_7        0x0020df4c        0x0 contiki-cc2538dk.a(list.o)
 .glue_7        0x0020df4c        0x0 contiki-cc2538dk.a(random.o)
 .glue_7        0x0020df4c        0x0 contiki-cc2538dk.a(ringbuf.o)
 .glue_7        0x0020df4c        0x0 contiki-cc2538dk.a(sicslowpan.o)
 .glue_7        0x0020df4c        0x0 contiki-cc2538dk.a(uip6.o)
 .glue_7        0x0020df4c        0x0 contiki-cc2538dk.a(uip-ds6.o)
 .glue_7        0x0020df4c        0x0 contiki-cc2538dk.a(uip-ds6-nbr.o)
 .glue_7        0x0020df4c        0x0 contiki-cc2538dk.a(uip-ds6-route.o)
 .glue_7        0x0020df4c        0x0 contiki-cc2538dk.a(uip-icmp6.o)
 .glue_7        0x0020df4c        0x0 contiki-cc2538dk.a(uip-nd6.o)
 .glue_7        0x0020df4c        0x0 contiki-cc2538dk.a(tcpip.o)
 .glue_7        0x0020df4c        0x0 contiki-cc2538dk.a(tcp-socket.o)
 .glue_7        0x0020df4c        0x0 contiki-cc2538dk.a(uip-debug.o)
 .glue_7        0x0020df4c        0x0 contiki-cc2538dk.a(uiplib.o)
 .glue_7        0x0020df4c        0x0 contiki-cc2538dk.a(linkaddr.o)
 .glue_7        0x0020df4c        0x0 contiki-cc2538dk.a(nbr-table.o)
 .glue_7        0x0020df4c        0x0 contiki-cc2538dk.a(netstack.o)
 .glue_7        0x0020df4c        0x0 contiki-cc2538dk.a(packetbuf.o)
 .glue_7        0x0020df4c        0x0 contiki-cc2538dk.a(queuebuf.o)
 .glue_7        0x0020df4c        0x0 contiki-cc2538dk.a(contikimac.o)
 .glue_7        0x0020df4c        0x0 contiki-cc2538dk.a(csma.o)
 .glue_7        0x0020df4c        0x0 contiki-cc2538dk.a(framer-802154.o)
 .glue_7        0x0020df4c        0x0 contiki-cc2538dk.a(framer.o)
 .glue_7        0x0020df4c        0x0 contiki-cc2538dk.a(mac.o)
 .glue_7        0x0020df4c        0x0 contiki-cc2538dk.a(mac-sequence.o)
 .glue_7        0x0020df4c        0x0 contiki-cc2538dk.a(nullsec.o)
 .glue_7        0x0020df4c        0x0 contiki-cc2538dk.a(netstack-aes.o)
 .glue_7        0x0020df4c        0x0 contiki-cc2538dk.a(rpl.o)
 .glue_7        0x0020df4c        0x0 contiki-cc2538dk.a(rpl-dag.o)
 .glue_7        0x0020df4c        0x0 contiki-cc2538dk.a(rpl-icmp6.o)
 .glue_7        0x0020df4c        0x0 contiki-cc2538dk.a(rpl-timers.o)
 .glue_7        0x0020df4c        0x0 contiki-cc2538dk.a(rpl-mrhof.o)
 .glue_7        0x0020df4c        0x0 contiki-cc2538dk.a(rpl-ext-header.)
 .glue_7        0x0020df4c        0x0 contiki-cc2538dk.a(oled-arch.o)
 .glue_7        0x0020df4c        0x0 contiki-cc2538dk.a(oled.o)
 .glue_7        0x0020df4c        0x0 contiki-cc2538dk.a(stimer.o)
 .glue_7        0x0020df4c        0x0 contiki-cc2538dk.a(memb.o)
 .glue_7        0x0020df4c        0x0 contiki-cc2538dk.a(frame802154.o)
 .glue_7        0x0020df4c        0x0 contiki-cc2538dk.a(aes-ccm.o)
 .glue_7        0x0020df4c        0x0 /home/user/CodeSourcery/Sourcery_G++_Lite/bin/../lib/gcc/arm-none-eabi/4.3.2/thumb2/libgcc.a(_aeabi_uldivmod.o)
 .glue_7        0x0020df4c        0x0 /home/user/CodeSourcery/Sourcery_G++_Lite/bin/../lib/gcc/arm-none-eabi/4.3.2/thumb2/libgcc.a(bpabi.o)
 .glue_7        0x0020df4c        0x0 /home/user/CodeSourcery/Sourcery_G++_Lite/bin/../lib/gcc/arm-none-eabi/4.3.2/thumb2/libgcc.a(_dvmd_tls.o)
 .glue_7        0x0020df4c        0x0 /home/user/CodeSourcery/Sourcery_G++_Lite/bin/../lib/gcc/arm-none-eabi/4.3.2/thumb2/libgcc.a(_divdi3.o)
 .glue_7        0x0020df4c        0x0 /home/user/CodeSourcery/Sourcery_G++_Lite/bin/../lib/gcc/arm-none-eabi/4.3.2/thumb2/libgcc.a(_udivdi3.o)
 .glue_7        0x0020df4c        0x0 /home/user/CodeSourcery/Sourcery_G++_Lite/bin/../lib/gcc/arm-none-eabi/4.3.2/thumb2/libgcc.a(_udivsi3.o)
 .glue_7        0x0020df4c        0x0 /home/user/CodeSourcery/Sourcery_G++_Lite/bin/../lib/gcc/arm-none-eabi/4.3.2/thumb2/libgcc.a(_clz.o)
 .glue_7        0x0020df4c        0x0 /home/user/CodeSourcery/Sourcery_G++_Lite/bin/../lib/gcc/arm-none-eabi/4.3.2/../../../../arm-none-eabi/lib/thumb2/libc.a(lib_a-memcmp.o)
 .glue_7        0x0020df4c        0x0 /home/user/CodeSourcery/Sourcery_G++_Lite/bin/../lib/gcc/arm-none-eabi/4.3.2/../../../../arm-none-eabi/lib/thumb2/libc.a(lib_a-memcpy.o)
 .glue_7        0x0020df4c        0x0 /home/user/CodeSourcery/Sourcery_G++_Lite/bin/../lib/gcc/arm-none-eabi/4.3.2/../../../../arm-none-eabi/lib/thumb2/libc.a(lib_a-memmove.o)
 .glue_7        0x0020df4c        0x0 /home/user/CodeSourcery/Sourcery_G++_Lite/bin/../lib/gcc/arm-none-eabi/4.3.2/../../../../arm-none-eabi/lib/thumb2/libc.a(lib_a-memset.o)
 .glue_7        0x0020df4c        0x0 /home/user/CodeSourcery/Sourcery_G++_Lite/bin/../lib/gcc/arm-none-eabi/4.3.2/../../../../arm-none-eabi/lib/thumb2/libc.a(lib_a-strlen.o)
 .glue_7        0x0020df4c        0x0 /home/user/CodeSourcery/Sourcery_G++_Lite/bin/../lib/gcc/arm-none-eabi/4.3.2/../../../../arm-none-eabi/lib/thumb2/libc.a(lib_a-strncasecmp.o)
 .glue_7        0x0020df4c        0x0 /home/user/CodeSourcery/Sourcery_G++_Lite/bin/../lib/gcc/arm-none-eabi/4.3.2/../../../../arm-none-eabi/lib/thumb2/libc.a(lib_a-strncmp.o)
 .glue_7        0x0020df4c        0x0 /home/user/CodeSourcery/Sourcery_G++_Lite/bin/../lib/gcc/arm-none-eabi/4.3.2/../../../../arm-none-eabi/lib/thumb2/libc.a(lib_a-ctype_.o)

.glue_7t        0x0020df4c        0x0 load address 0x0020df4a
 .glue_7t       0x0020df4c        0x0 obj_cc2538dk/startup-gcc.o
 .glue_7t       0x0020df4c        0x0 mqtt-demo.co
 .glue_7t       0x0020df4c        0x0 contiki-cc2538dk.a(mqtt.o)
 .glue_7t       0x0020df4c        0x0 contiki-cc2538dk.a(leds.o)
 .glue_7t       0x0020df4c        0x0 contiki-cc2538dk.a(leds-arch.o)
 .glue_7t       0x0020df4c        0x0 contiki-cc2538dk.a(contiki-main.o)
 .glue_7t       0x0020df4c        0x0 contiki-cc2538dk.a(sensors.o)
 .glue_7t       0x0020df4c        0x0 contiki-cc2538dk.a(smartrf-sensors)
 .glue_7t       0x0020df4c        0x0 contiki-cc2538dk.a(button-sensor.o)
 .glue_7t       0x0020df4c        0x0 contiki-cc2538dk.a(als-sensor.o)
 .glue_7t       0x0020df4c        0x0 contiki-cc2538dk.a(clock.o)
 .glue_7t       0x0020df4c        0x0 contiki-cc2538dk.a(rtimer-arch.o)
 .glue_7t       0x0020df4c        0x0 contiki-cc2538dk.a(uart.o)
 .glue_7t       0x0020df4c        0x0 contiki-cc2538dk.a(watchdog.o)
 .glue_7t       0x0020df4c        0x0 contiki-cc2538dk.a(nvic.o)
 .glue_7t       0x0020df4c        0x0 contiki-cc2538dk.a(cpu.o)
 .glue_7t       0x0020df4c        0x0 contiki-cc2538dk.a(sys-ctrl.o)
 .glue_7t       0x0020df4c        0x0 contiki-cc2538dk.a(gpio.o)
 .glue_7t       0x0020df4c        0x0 contiki-cc2538dk.a(ioc.o)
 .glue_7t       0x0020df4c        0x0 contiki-cc2538dk.a(adc.o)
 .glue_7t       0x0020df4c        0x0 contiki-cc2538dk.a(crypto.o)
 .glue_7t       0x0020df4c        0x0 contiki-cc2538dk.a(cc2538-rf.o)
 .glue_7t       0x0020df4c        0x0 contiki-cc2538dk.a(udma.o)
 .glue_7t       0x0020df4c        0x0 contiki-cc2538dk.a(lpm.o)
 .glue_7t       0x0020df4c        0x0 contiki-cc2538dk.a(dbg.o)
 .glue_7t       0x0020df4c        0x0 contiki-cc2538dk.a(ieee-addr.o)
 .glue_7t       0x0020df4c        0x0 contiki-cc2538dk.a(cc2538-temp-sen)
 .glue_7t       0x0020df4c        0x0 contiki-cc2538dk.a(vdd3-sensor.o)
 .glue_7t       0x0020df4c        0x0 contiki-cc2538dk.a(dbg-printf.o)
 .glue_7t       0x0020df4c        0x0 contiki-cc2538dk.a(dbg-snprintf.o)
 .glue_7t       0x0020df4c        0x0 contiki-cc2538dk.a(strformat.o)
 .glue_7t       0x0020df4c        0x0 contiki-cc2538dk.a(autostart.o)
 .glue_7t       0x0020df4c        0x0 contiki-cc2538dk.a(ctimer.o)
 .glue_7t       0x0020df4c        0x0 contiki-cc2538dk.a(energest.o)
 .glue_7t       0x0020df4c        0x0 contiki-cc2538dk.a(etimer.o)
 .glue_7t       0x0020df4c        0x0 contiki-cc2538dk.a(process.o)
 .glue_7t       0x0020df4c        0x0 contiki-cc2538dk.a(rtimer.o)
 .glue_7t       0x0020df4c        0x0 contiki-cc2538dk.a(timer.o)
 .glue_7t       0x0020df4c        0x0 contiki-cc2538dk.a(serial-line.o)
 .glue_7t       0x0020df4c        0x0 contiki-cc2538dk.a(list.o)
 .glue_7t       0x0020df4c        0x0 contiki-cc2538dk.a(random.o)
 .glue_7t       0x0020df4c        0x0 contiki-cc2538dk.a(ringbuf.o)
 .glue_7t       0x0020df4c        0x0 contiki-cc2538dk.a(sicslowpan.o)
 .glue_7t       0x0020df4c        0x0 contiki-cc2538dk.a(uip6.o)
 .glue_7t       0x0020df4c        0x0 contiki-cc2538dk.a(uip-ds6.o)
 .glue_7t       0x0020df4c        0x0 contiki-cc2538dk.a(uip-ds6-nbr.o)
 .glue_7t       0x0020df4c        0x0 contiki-cc2538dk.a(uip-ds6-route.o)
 .glue_7t       0x0020df4c        0x0 contiki-cc2538dk.a(uip-icmp6.o)
 .glue_7t       0x0020df4c        0x0 contiki-cc2538dk.a(uip-nd6.o)
 .glue_7t       0x0020df4c        0x0 contiki-cc2538dk.a(tcpip.o)
 .glue_7t       0x0020df4c        0x0 contiki-cc2538dk.a(tcp-socket.o)
 .glue_7t       0x0020df4c        0x0 contiki-cc2538dk.a(uip-debug.o)
 .glue_7t       0x0020df4c        0x0 contiki-cc2538dk.a(uiplib.o)
 .glue_7t       0x0020df4c        0x0 contiki-cc2538dk.a(linkaddr.o)
 .glue_7t       0x0020df4c        0x0 contiki-cc2538dk.a(nbr-table.o)
 .glue_7t       0x0020df4c        0x0 contiki-cc2538dk.a(netstack.o)
 .glue_7t       0x0020df4c        0x0 contiki-cc2538dk.a(packetbuf.o)
 .glue_7t       0x0020df4c        0x0 contiki-cc2538dk.a(queuebuf.o)
 .glue_7t       0x0020df4c        0x0 contiki-cc2538dk.a(contikimac.o)
 .glue_7t       0x0020df4c        0x0 contiki-cc2538dk.a(csma.o)
 .glue_7t       0x0020df4c        0x0 contiki-cc2538dk.a(framer-802154.o)
 .glue_7t       0x0020df4c        0x0 contiki-cc2538dk.a(framer.o)
 .glue_7t       0x0020df4c        0x0 contiki-cc2538dk.a(mac.o)
 .glue_7t       0x0020df4c        0x0 contiki-cc2538dk.a(mac-sequence.o)
 .glue_7t       0x0020df4c        0x0 contiki-cc2538dk.a(nullsec.o)
 .glue_7t       0x0020df4c        0x0 contiki-cc2538dk.a(netstack-aes.o)
 .glue_7t       0x0020df4c        0x0 contiki-cc2538dk.a(rpl.o)
 .glue_7t       0x0020df4c        0x0 contiki-cc2538dk.a(rpl-dag.o)
 .glue_7t       0x0020df4c        0x0 contiki-cc2538dk.a(rpl-icmp6.o)
 .glue_7t       0x0020df4c        0x0 contiki-cc2538dk.a(rpl-timers.o)
 .glue_7t       0x0020df4c        0x0 contiki-cc2538dk.a(rpl-mrhof.o)
 .glue_7t       0x0020df4c        0x0 contiki-cc2538dk.a(rpl-ext-header.)
 .glue_7t       0x0020df4c        0x0 contiki-cc2538dk.a(oled-arch.o)
 .glue_7t       0x0020df4c        0x0 contiki-cc2538dk.a(oled.o)
 .glue_7t       0x0020df4c        0x0 contiki-cc2538dk.a(stimer.o)
 .glue_7t       0x0020df4c        0x0 contiki-cc2538dk.a(memb.o)
 .glue_7t       0x0020df4c        0x0 contiki-cc2538dk.a(frame802154.o)
 .glue_7t       0x0020df4c        0x0 contiki-cc2538dk.a(aes-ccm.o)
 .glue_7t       0x0020df4c        0x0 /home/user/CodeSourcery/Sourcery_G++_Lite/bin/../lib/gcc/arm-none-eabi/4.3.2/thumb2/libgcc.a(_aeabi_uldivmod.o)
 .glue_7t       0x0020df4c        0x0 /home/user/CodeSourcery/Sourcery_G++_Lite/bin/../lib/gcc/arm-none-eabi/4.3.2/thumb2/libgcc.a(bpabi.o)
 .glue_7t       0x0020df4c        0x0 /home/user/CodeSourcery/Sourcery_G++_Lite/bin/../lib/gcc/arm-none-eabi/4.3.2/thumb2/libgcc.a(_dvmd_tls.o)
 .glue_7t       0x0020df4c        0x0 /home/user/CodeSourcery/Sourcery_G++_Lite/bin/../lib/gcc/arm-none-eabi/4.3.2/thumb2/libgcc.a(_divdi3.o)
 .glue_7t       0x0020df4c        0x0 /home/user/CodeSourcery/Sourcery_G++_Lite/bin/../lib/gcc/arm-none-eabi/4.3.2/thumb2/libgcc.a(_udivdi3.o)
 .glue_7t       0x0020df4c        0x0 /home/user/CodeSourcery/Sourcery_G++_Lite/bin/../lib/gcc/arm-none-eabi/4.3.2/thumb2/libgcc.a(_udivsi3.o)
 .glue_7t       0x0020df4c        0x0 /home/user/CodeSourcery/Sourcery_G++_Lite/bin/../lib/gcc/arm-none-eabi/4.3.2/thumb2/libgcc.a(_clz.o)
 .glue_7t       0x0020df4c        0x0 /home/user/CodeSourcery/Sourcery_G++_Lite/bin/../lib/gcc/arm-none-eabi/4.3.2/../../../../arm-none-eabi/lib/thumb2/libc.a(lib_a-memcmp.o)
 .glue_7t       0x0020df4c        0x0 /home/user/CodeSourcery/Sourcery_G++_Lite/bin/../lib/gcc/arm-none-eabi/4.3.2/../../../../arm-none-eabi/lib/thumb2/libc.a(lib_a-memcpy.o)
 .glue_7t       0x0020df4c        0x0 /home/user/CodeSourcery/Sourcery_G++_Lite/bin/../lib/gcc/arm-none-eabi/4.3.2/../../../../arm-none-eabi/lib/thumb2/libc.a(lib_a-memmove.o)
 .glue_7t       0x0020df4c        0x0 /home/user/CodeSourcery/Sourcery_G++_Lite/bin/../lib/gcc/arm-none-eabi/4.3.2/../../../../arm-none-eabi/lib/thumb2/libc.a(lib_a-memset.o)
 .glue_7t       0x0020df4c        0x0 /home/user/CodeSourcery/Sourcery_G++_Lite/bin/../lib/gcc/arm-none-eabi/4.3.2/../../../../arm-none-eabi/lib/thumb2/libc.a(lib_a-strlen.o)
 .glue_7t       0x0020df4c        0x0 /home/user/CodeSourcery/Sourcery_G++_Lite/bin/../lib/gcc/arm-none-eabi/4.3.2/../../../../arm-none-eabi/lib/thumb2/libc.a(lib_a-strncasecmp.o)
 .glue_7t       0x0020df4c        0x0 /home/user/CodeSourcery/Sourcery_G++_Lite/bin/../lib/gcc/arm-none-eabi/4.3.2/../../../../arm-none-eabi/lib/thumb2/libc.a(lib_a-strncmp.o)
 .glue_7t       0x0020df4c        0x0 /home/user/CodeSourcery/Sourcery_G++_Lite/bin/../lib/gcc/arm-none-eabi/4.3.2/../../../../arm-none-eabi/lib/thumb2/libc.a(lib_a-ctype_.o)

.vfp11_veneer   0x0020df4c        0x0 load address 0x0020df4a
 .vfp11_veneer  0x0020df4c        0x0 obj_cc2538dk/startup-gcc.o
 .vfp11_veneer  0x0020df4c        0x0 mqtt-demo.co
 .vfp11_veneer  0x0020df4c        0x0 contiki-cc2538dk.a(mqtt.o)
 .vfp11_veneer  0x0020df4c        0x0 contiki-cc2538dk.a(leds.o)
 .vfp11_veneer  0x0020df4c        0x0 contiki-cc2538dk.a(leds-arch.o)
 .vfp11_veneer  0x0020df4c        0x0 contiki-cc2538dk.a(contiki-main.o)
 .vfp11_veneer  0x0020df4c        0x0 contiki-cc2538dk.a(sensors.o)
 .vfp11_veneer  0x0020df4c        0x0 contiki-cc2538dk.a(smartrf-sensors)
 .vfp11_veneer  0x0020df4c        0x0 contiki-cc2538dk.a(button-sensor.o)
 .vfp11_veneer  0x0020df4c        0x0 contiki-cc2538dk.a(als-sensor.o)
 .vfp11_veneer  0x0020df4c        0x0 contiki-cc2538dk.a(clock.o)
 .vfp11_veneer  0x0020df4c        0x0 contiki-cc2538dk.a(rtimer-arch.o)
 .vfp11_veneer  0x0020df4c        0x0 contiki-cc2538dk.a(uart.o)
 .vfp11_veneer  0x0020df4c        0x0 contiki-cc2538dk.a(watchdog.o)
 .vfp11_veneer  0x0020df4c        0x0 contiki-cc2538dk.a(nvic.o)
 .vfp11_veneer  0x0020df4c        0x0 contiki-cc2538dk.a(cpu.o)
 .vfp11_veneer  0x0020df4c        0x0 contiki-cc2538dk.a(sys-ctrl.o)
 .vfp11_veneer  0x0020df4c        0x0 contiki-cc2538dk.a(gpio.o)
 .vfp11_veneer  0x0020df4c        0x0 contiki-cc2538dk.a(ioc.o)
 .vfp11_veneer  0x0020df4c        0x0 contiki-cc2538dk.a(adc.o)
 .vfp11_veneer  0x0020df4c        0x0 contiki-cc2538dk.a(crypto.o)
 .vfp11_veneer  0x0020df4c        0x0 contiki-cc2538dk.a(cc2538-rf.o)
 .vfp11_veneer  0x0020df4c        0x0 contiki-cc2538dk.a(udma.o)
 .vfp11_veneer  0x0020df4c        0x0 contiki-cc2538dk.a(lpm.o)
 .vfp11_veneer  0x0020df4c        0x0 contiki-cc2538dk.a(dbg.o)
 .vfp11_veneer  0x0020df4c        0x0 contiki-cc2538dk.a(ieee-addr.o)
 .vfp11_veneer  0x0020df4c        0x0 contiki-cc2538dk.a(cc2538-temp-sen)
 .vfp11_veneer  0x0020df4c        0x0 contiki-cc2538dk.a(vdd3-sensor.o)
 .vfp11_veneer  0x0020df4c        0x0 contiki-cc2538dk.a(dbg-printf.o)
 .vfp11_veneer  0x0020df4c        0x0 contiki-cc2538dk.a(dbg-snprintf.o)
 .vfp11_veneer  0x0020df4c        0x0 contiki-cc2538dk.a(strformat.o)
 .vfp11_veneer  0x0020df4c        0x0 contiki-cc2538dk.a(autostart.o)
 .vfp11_veneer  0x0020df4c        0x0 contiki-cc2538dk.a(ctimer.o)
 .vfp11_veneer  0x0020df4c        0x0 contiki-cc2538dk.a(energest.o)
 .vfp11_veneer  0x0020df4c        0x0 contiki-cc2538dk.a(etimer.o)
 .vfp11_veneer  0x0020df4c        0x0 contiki-cc2538dk.a(process.o)
 .vfp11_veneer  0x0020df4c        0x0 contiki-cc2538dk.a(rtimer.o)
 .vfp11_veneer  0x0020df4c        0x0 contiki-cc2538dk.a(timer.o)
 .vfp11_veneer  0x0020df4c        0x0 contiki-cc2538dk.a(serial-line.o)
 .vfp11_veneer  0x0020df4c        0x0 contiki-cc2538dk.a(list.o)
 .vfp11_veneer  0x0020df4c        0x0 contiki-cc2538dk.a(random.o)
 .vfp11_veneer  0x0020df4c        0x0 contiki-cc2538dk.a(ringbuf.o)
 .vfp11_veneer  0x0020df4c        0x0 contiki-cc2538dk.a(sicslowpan.o)
 .vfp11_veneer  0x0020df4c        0x0 contiki-cc2538dk.a(uip6.o)
 .vfp11_veneer  0x0020df4c        0x0 contiki-cc2538dk.a(uip-ds6.o)
 .vfp11_veneer  0x0020df4c        0x0 contiki-cc2538dk.a(uip-ds6-nbr.o)
 .vfp11_veneer  0x0020df4c        0x0 contiki-cc2538dk.a(uip-ds6-route.o)
 .vfp11_veneer  0x0020df4c        0x0 contiki-cc2538dk.a(uip-icmp6.o)
 .vfp11_veneer  0x0020df4c        0x0 contiki-cc2538dk.a(uip-nd6.o)
 .vfp11_veneer  0x0020df4c        0x0 contiki-cc2538dk.a(tcpip.o)
 .vfp11_veneer  0x0020df4c        0x0 contiki-cc2538dk.a(tcp-socket.o)
 .vfp11_veneer  0x0020df4c        0x0 contiki-cc2538dk.a(uip-debug.o)
 .vfp11_veneer  0x0020df4c        0x0 contiki-cc2538dk.a(uiplib.o)
 .vfp11_veneer  0x0020df4c        0x0 contiki-cc2538dk.a(linkaddr.o)
 .vfp11_veneer  0x0020df4c        0x0 contiki-cc2538dk.a(nbr-table.o)
 .vfp11_veneer  0x0020df4c        0x0 contiki-cc2538dk.a(netstack.o)
 .vfp11_veneer  0x0020df4c        0x0 contiki-cc2538dk.a(packetbuf.o)
 .vfp11_veneer  0x0020df4c        0x0 contiki-cc2538dk.a(queuebuf.o)
 .vfp11_veneer  0x0020df4c        0x0 contiki-cc2538dk.a(contikimac.o)
 .vfp11_veneer  0x0020df4c        0x0 contiki-cc2538dk.a(csma.o)
 .vfp11_veneer  0x0020df4c        0x0 contiki-cc2538dk.a(framer-802154.o)
 .vfp11_veneer  0x0020df4c        0x0 contiki-cc2538dk.a(framer.o)
 .vfp11_veneer  0x0020df4c        0x0 contiki-cc2538dk.a(mac.o)
 .vfp11_veneer  0x0020df4c        0x0 contiki-cc2538dk.a(mac-sequence.o)
 .vfp11_veneer  0x0020df4c        0x0 contiki-cc2538dk.a(nullsec.o)
 .vfp11_veneer  0x0020df4c        0x0 contiki-cc2538dk.a(netstack-aes.o)
 .vfp11_veneer  0x0020df4c        0x0 contiki-cc2538dk.a(rpl.o)
 .vfp11_veneer  0x0020df4c        0x0 contiki-cc2538dk.a(rpl-dag.o)
 .vfp11_veneer  0x0020df4c        0x0 contiki-cc2538dk.a(rpl-icmp6.o)
 .vfp11_veneer  0x0020df4c        0x0 contiki-cc2538dk.a(rpl-timers.o)
 .vfp11_veneer  0x0020df4c        0x0 contiki-cc2538dk.a(rpl-mrhof.o)
 .vfp11_veneer  0x0020df4c        0x0 contiki-cc2538dk.a(rpl-ext-header.)
 .vfp11_veneer  0x0020df4c        0x0 contiki-cc2538dk.a(oled-arch.o)
 .vfp11_veneer  0x0020df4c        0x0 contiki-cc2538dk.a(oled.o)
 .vfp11_veneer  0x0020df4c        0x0 contiki-cc2538dk.a(stimer.o)
 .vfp11_veneer  0x0020df4c        0x0 contiki-cc2538dk.a(memb.o)
 .vfp11_veneer  0x0020df4c        0x0 contiki-cc2538dk.a(frame802154.o)
 .vfp11_veneer  0x0020df4c        0x0 contiki-cc2538dk.a(aes-ccm.o)
 .vfp11_veneer  0x0020df4c        0x0 /home/user/CodeSourcery/Sourcery_G++_Lite/bin/../lib/gcc/arm-none-eabi/4.3.2/thumb2/libgcc.a(_aeabi_uldivmod.o)
 .vfp11_veneer  0x0020df4c        0x0 /home/user/CodeSourcery/Sourcery_G++_Lite/bin/../lib/gcc/arm-none-eabi/4.3.2/thumb2/libgcc.a(bpabi.o)
 .vfp11_veneer  0x0020df4c        0x0 /home/user/CodeSourcery/Sourcery_G++_Lite/bin/../lib/gcc/arm-none-eabi/4.3.2/thumb2/libgcc.a(_dvmd_tls.o)
 .vfp11_veneer  0x0020df4c        0x0 /home/user/CodeSourcery/Sourcery_G++_Lite/bin/../lib/gcc/arm-none-eabi/4.3.2/thumb2/libgcc.a(_divdi3.o)
 .vfp11_veneer  0x0020df4c        0x0 /home/user/CodeSourcery/Sourcery_G++_Lite/bin/../lib/gcc/arm-none-eabi/4.3.2/thumb2/libgcc.a(_udivdi3.o)
 .vfp11_veneer  0x0020df4c        0x0 /home/user/CodeSourcery/Sourcery_G++_Lite/bin/../lib/gcc/arm-none-eabi/4.3.2/thumb2/libgcc.a(_udivsi3.o)
 .vfp11_veneer  0x0020df4c        0x0 /home/user/CodeSourcery/Sourcery_G++_Lite/bin/../lib/gcc/arm-none-eabi/4.3.2/thumb2/libgcc.a(_clz.o)
 .vfp11_veneer  0x0020df4c        0x0 /home/user/CodeSourcery/Sourcery_G++_Lite/bin/../lib/gcc/arm-none-eabi/4.3.2/../../../../arm-none-eabi/lib/thumb2/libc.a(lib_a-memcmp.o)
 .vfp11_veneer  0x0020df4c        0x0 /home/user/CodeSourcery/Sourcery_G++_Lite/bin/../lib/gcc/arm-none-eabi/4.3.2/../../../../arm-none-eabi/lib/thumb2/libc.a(lib_a-memcpy.o)
 .vfp11_veneer  0x0020df4c        0x0 /home/user/CodeSourcery/Sourcery_G++_Lite/bin/../lib/gcc/arm-none-eabi/4.3.2/../../../../arm-none-eabi/lib/thumb2/libc.a(lib_a-memmove.o)
 .vfp11_veneer  0x0020df4c        0x0 /home/user/CodeSourcery/Sourcery_G++_Lite/bin/../lib/gcc/arm-none-eabi/4.3.2/../../../../arm-none-eabi/lib/thumb2/libc.a(lib_a-memset.o)
 .vfp11_veneer  0x0020df4c        0x0 /home/user/CodeSourcery/Sourcery_G++_Lite/bin/../lib/gcc/arm-none-eabi/4.3.2/../../../../arm-none-eabi/lib/thumb2/libc.a(lib_a-strlen.o)
 .vfp11_veneer  0x0020df4c        0x0 /home/user/CodeSourcery/Sourcery_G++_Lite/bin/../lib/gcc/arm-none-eabi/4.3.2/../../../../arm-none-eabi/lib/thumb2/libc.a(lib_a-strncasecmp.o)
 .vfp11_veneer  0x0020df4c        0x0 /home/user/CodeSourcery/Sourcery_G++_Lite/bin/../lib/gcc/arm-none-eabi/4.3.2/../../../../arm-none-eabi/lib/thumb2/libc.a(lib_a-strncmp.o)
 .vfp11_veneer  0x0020df4c        0x0 /home/user/CodeSourcery/Sourcery_G++_Lite/bin/../lib/gcc/arm-none-eabi/4.3.2/../../../../arm-none-eabi/lib/thumb2/libc.a(lib_a-ctype_.o)

.janus_2cc_veneer
                0x0020df4c        0x0 load address 0x0020df4a
 .janus_2cc_veneer
                0x0020df4c        0x0 obj_cc2538dk/startup-gcc.o
 .janus_2cc_veneer
                0x0020df4c        0x0 mqtt-demo.co
 .janus_2cc_veneer
                0x0020df4c        0x0 contiki-cc2538dk.a(mqtt.o)
 .janus_2cc_veneer
                0x0020df4c        0x0 contiki-cc2538dk.a(leds.o)
 .janus_2cc_veneer
                0x0020df4c        0x0 contiki-cc2538dk.a(leds-arch.o)
 .janus_2cc_veneer
                0x0020df4c        0x0 contiki-cc2538dk.a(contiki-main.o)
 .janus_2cc_veneer
                0x0020df4c        0x0 contiki-cc2538dk.a(sensors.o)
 .janus_2cc_veneer
                0x0020df4c        0x0 contiki-cc2538dk.a(smartrf-sensors)
 .janus_2cc_veneer
                0x0020df4c        0x0 contiki-cc2538dk.a(button-sensor.o)
 .janus_2cc_veneer
                0x0020df4c        0x0 contiki-cc2538dk.a(als-sensor.o)
 .janus_2cc_veneer
                0x0020df4c        0x0 contiki-cc2538dk.a(clock.o)
 .janus_2cc_veneer
                0x0020df4c        0x0 contiki-cc2538dk.a(rtimer-arch.o)
 .janus_2cc_veneer
                0x0020df4c        0x0 contiki-cc2538dk.a(uart.o)
 .janus_2cc_veneer
                0x0020df4c        0x0 contiki-cc2538dk.a(watchdog.o)
 .janus_2cc_veneer
                0x0020df4c        0x0 contiki-cc2538dk.a(nvic.o)
 .janus_2cc_veneer
                0x0020df4c        0x0 contiki-cc2538dk.a(cpu.o)
 .janus_2cc_veneer
                0x0020df4c        0x0 contiki-cc2538dk.a(sys-ctrl.o)
 .janus_2cc_veneer
                0x0020df4c        0x0 contiki-cc2538dk.a(gpio.o)
 .janus_2cc_veneer
                0x0020df4c        0x0 contiki-cc2538dk.a(ioc.o)
 .janus_2cc_veneer
                0x0020df4c        0x0 contiki-cc2538dk.a(adc.o)
 .janus_2cc_veneer
                0x0020df4c        0x0 contiki-cc2538dk.a(crypto.o)
 .janus_2cc_veneer
                0x0020df4c        0x0 contiki-cc2538dk.a(cc2538-rf.o)
 .janus_2cc_veneer
                0x0020df4c        0x0 contiki-cc2538dk.a(udma.o)
 .janus_2cc_veneer
                0x0020df4c        0x0 contiki-cc2538dk.a(lpm.o)
 .janus_2cc_veneer
                0x0020df4c        0x0 contiki-cc2538dk.a(dbg.o)
 .janus_2cc_veneer
                0x0020df4c        0x0 contiki-cc2538dk.a(ieee-addr.o)
 .janus_2cc_veneer
                0x0020df4c        0x0 contiki-cc2538dk.a(cc2538-temp-sen)
 .janus_2cc_veneer
                0x0020df4c        0x0 contiki-cc2538dk.a(vdd3-sensor.o)
 .janus_2cc_veneer
                0x0020df4c        0x0 contiki-cc2538dk.a(dbg-printf.o)
 .janus_2cc_veneer
                0x0020df4c        0x0 contiki-cc2538dk.a(dbg-snprintf.o)
 .janus_2cc_veneer
                0x0020df4c        0x0 contiki-cc2538dk.a(strformat.o)
 .janus_2cc_veneer
                0x0020df4c        0x0 contiki-cc2538dk.a(autostart.o)
 .janus_2cc_veneer
                0x0020df4c        0x0 contiki-cc2538dk.a(ctimer.o)
 .janus_2cc_veneer
                0x0020df4c        0x0 contiki-cc2538dk.a(energest.o)
 .janus_2cc_veneer
                0x0020df4c        0x0 contiki-cc2538dk.a(etimer.o)
 .janus_2cc_veneer
                0x0020df4c        0x0 contiki-cc2538dk.a(process.o)
 .janus_2cc_veneer
                0x0020df4c        0x0 contiki-cc2538dk.a(rtimer.o)
 .janus_2cc_veneer
                0x0020df4c        0x0 contiki-cc2538dk.a(timer.o)
 .janus_2cc_veneer
                0x0020df4c        0x0 contiki-cc2538dk.a(serial-line.o)
 .janus_2cc_veneer
                0x0020df4c        0x0 contiki-cc2538dk.a(list.o)
 .janus_2cc_veneer
                0x0020df4c        0x0 contiki-cc2538dk.a(random.o)
 .janus_2cc_veneer
                0x0020df4c        0x0 contiki-cc2538dk.a(ringbuf.o)
 .janus_2cc_veneer
                0x0020df4c        0x0 contiki-cc2538dk.a(sicslowpan.o)
 .janus_2cc_veneer
                0x0020df4c        0x0 contiki-cc2538dk.a(uip6.o)
 .janus_2cc_veneer
                0x0020df4c        0x0 contiki-cc2538dk.a(uip-ds6.o)
 .janus_2cc_veneer
                0x0020df4c        0x0 contiki-cc2538dk.a(uip-ds6-nbr.o)
 .janus_2cc_veneer
                0x0020df4c        0x0 contiki-cc2538dk.a(uip-ds6-route.o)
 .janus_2cc_veneer
                0x0020df4c        0x0 contiki-cc2538dk.a(uip-icmp6.o)
 .janus_2cc_veneer
                0x0020df4c        0x0 contiki-cc2538dk.a(uip-nd6.o)
 .janus_2cc_veneer
                0x0020df4c        0x0 contiki-cc2538dk.a(tcpip.o)
 .janus_2cc_veneer
                0x0020df4c        0x0 contiki-cc2538dk.a(tcp-socket.o)
 .janus_2cc_veneer
                0x0020df4c        0x0 contiki-cc2538dk.a(uip-debug.o)
 .janus_2cc_veneer
                0x0020df4c        0x0 contiki-cc2538dk.a(uiplib.o)
 .janus_2cc_veneer
                0x0020df4c        0x0 contiki-cc2538dk.a(linkaddr.o)
 .janus_2cc_veneer
                0x0020df4c        0x0 contiki-cc2538dk.a(nbr-table.o)
 .janus_2cc_veneer
                0x0020df4c        0x0 contiki-cc2538dk.a(netstack.o)
 .janus_2cc_veneer
                0x0020df4c        0x0 contiki-cc2538dk.a(packetbuf.o)
 .janus_2cc_veneer
                0x0020df4c        0x0 contiki-cc2538dk.a(queuebuf.o)
 .janus_2cc_veneer
                0x0020df4c        0x0 contiki-cc2538dk.a(contikimac.o)
 .janus_2cc_veneer
                0x0020df4c        0x0 contiki-cc2538dk.a(csma.o)
 .janus_2cc_veneer
                0x0020df4c        0x0 contiki-cc2538dk.a(framer-802154.o)
 .janus_2cc_veneer
                0x0020df4c        0x0 contiki-cc2538dk.a(framer.o)
 .janus_2cc_veneer
                0x0020df4c        0x0 contiki-cc2538dk.a(mac.o)
 .janus_2cc_veneer
                0x0020df4c        0x0 contiki-cc2538dk.a(mac-sequence.o)
 .janus_2cc_veneer
                0x0020df4c        0x0 contiki-cc2538dk.a(nullsec.o)
 .janus_2cc_veneer
                0x0020df4c        0x0 contiki-cc2538dk.a(netstack-aes.o)
 .janus_2cc_veneer
                0x0020df4c        0x0 contiki-cc2538dk.a(rpl.o)
 .janus_2cc_veneer
                0x0020df4c        0x0 contiki-cc2538dk.a(rpl-dag.o)
 .janus_2cc_veneer
                0x0020df4c        0x0 contiki-cc2538dk.a(rpl-icmp6.o)
 .janus_2cc_veneer
                0x0020df4c        0x0 contiki-cc2538dk.a(rpl-timers.o)
 .janus_2cc_veneer
                0x0020df4c        0x0 contiki-cc2538dk.a(rpl-mrhof.o)
 .janus_2cc_veneer
                0x0020df4c        0x0 contiki-cc2538dk.a(rpl-ext-header.)
 .janus_2cc_veneer
                0x0020df4c        0x0 contiki-cc2538dk.a(oled-arch.o)
 .janus_2cc_veneer
                0x0020df4c        0x0 contiki-cc2538dk.a(oled.o)
 .janus_2cc_veneer
                0x0020df4c        0x0 contiki-cc2538dk.a(stimer.o)
 .janus_2cc_veneer
                0x0020df4c        0x0 contiki-cc2538dk.a(memb.o)
 .janus_2cc_veneer
                0x0020df4c        0x0 contiki-cc2538dk.a(frame802154.o)
 .janus_2cc_veneer
                0x0020df4c        0x0 contiki-cc2538dk.a(aes-ccm.o)
 .janus_2cc_veneer
                0x0020df4c        0x0 /home/user/CodeSourcery/Sourcery_G++_Lite/bin/../lib/gcc/arm-none-eabi/4.3.2/thumb2/libgcc.a(_aeabi_uldivmod.o)
 .janus_2cc_veneer
                0x0020df4c        0x0 /home/user/CodeSourcery/Sourcery_G++_Lite/bin/../lib/gcc/arm-none-eabi/4.3.2/thumb2/libgcc.a(bpabi.o)
 .janus_2cc_veneer
                0x0020df4c        0x0 /home/user/CodeSourcery/Sourcery_G++_Lite/bin/../lib/gcc/arm-none-eabi/4.3.2/thumb2/libgcc.a(_dvmd_tls.o)
 .janus_2cc_veneer
                0x0020df4c        0x0 /home/user/CodeSourcery/Sourcery_G++_Lite/bin/../lib/gcc/arm-none-eabi/4.3.2/thumb2/libgcc.a(_divdi3.o)
 .janus_2cc_veneer
                0x0020df4c        0x0 /home/user/CodeSourcery/Sourcery_G++_Lite/bin/../lib/gcc/arm-none-eabi/4.3.2/thumb2/libgcc.a(_udivdi3.o)
 .janus_2cc_veneer
                0x0020df4c        0x0 /home/user/CodeSourcery/Sourcery_G++_Lite/bin/../lib/gcc/arm-none-eabi/4.3.2/thumb2/libgcc.a(_udivsi3.o)
 .janus_2cc_veneer
                0x0020df4c        0x0 /home/user/CodeSourcery/Sourcery_G++_Lite/bin/../lib/gcc/arm-none-eabi/4.3.2/thumb2/libgcc.a(_clz.o)
 .janus_2cc_veneer
                0x0020df4c        0x0 /home/user/CodeSourcery/Sourcery_G++_Lite/bin/../lib/gcc/arm-none-eabi/4.3.2/../../../../arm-none-eabi/lib/thumb2/libc.a(lib_a-memcmp.o)
 .janus_2cc_veneer
                0x0020df4c        0x0 /home/user/CodeSourcery/Sourcery_G++_Lite/bin/../lib/gcc/arm-none-eabi/4.3.2/../../../../arm-none-eabi/lib/thumb2/libc.a(lib_a-memcpy.o)
 .janus_2cc_veneer
                0x0020df4c        0x0 /home/user/CodeSourcery/Sourcery_G++_Lite/bin/../lib/gcc/arm-none-eabi/4.3.2/../../../../arm-none-eabi/lib/thumb2/libc.a(lib_a-memmove.o)
 .janus_2cc_veneer
                0x0020df4c        0x0 /home/user/CodeSourcery/Sourcery_G++_Lite/bin/../lib/gcc/arm-none-eabi/4.3.2/../../../../arm-none-eabi/lib/thumb2/libc.a(lib_a-memset.o)
 .janus_2cc_veneer
                0x0020df4c        0x0 /home/user/CodeSourcery/Sourcery_G++_Lite/bin/../lib/gcc/arm-none-eabi/4.3.2/../../../../arm-none-eabi/lib/thumb2/libc.a(lib_a-strlen.o)
 .janus_2cc_veneer
                0x0020df4c        0x0 /home/user/CodeSourcery/Sourcery_G++_Lite/bin/../lib/gcc/arm-none-eabi/4.3.2/../../../../arm-none-eabi/lib/thumb2/libc.a(lib_a-strncasecmp.o)
 .janus_2cc_veneer
                0x0020df4c        0x0 /home/user/CodeSourcery/Sourcery_G++_Lite/bin/../lib/gcc/arm-none-eabi/4.3.2/../../../../arm-none-eabi/lib/thumb2/libc.a(lib_a-strncmp.o)
 .janus_2cc_veneer
                0x0020df4c        0x0 /home/user/CodeSourcery/Sourcery_G++_Lite/bin/../lib/gcc/arm-none-eabi/4.3.2/../../../../arm-none-eabi/lib/thumb2/libc.a(lib_a-ctype_.o)

.v4_bx          0x0020df4c        0x0 load address 0x0020df4a
 .v4_bx         0x0020df4c        0x0 obj_cc2538dk/startup-gcc.o
 .v4_bx         0x0020df4c        0x0 mqtt-demo.co
 .v4_bx         0x0020df4c        0x0 contiki-cc2538dk.a(mqtt.o)
 .v4_bx         0x0020df4c        0x0 contiki-cc2538dk.a(leds.o)
 .v4_bx         0x0020df4c        0x0 contiki-cc2538dk.a(leds-arch.o)
 .v4_bx         0x0020df4c        0x0 contiki-cc2538dk.a(contiki-main.o)
 .v4_bx         0x0020df4c        0x0 contiki-cc2538dk.a(sensors.o)
 .v4_bx         0x0020df4c        0x0 contiki-cc2538dk.a(smartrf-sensors)
 .v4_bx         0x0020df4c        0x0 contiki-cc2538dk.a(button-sensor.o)
 .v4_bx         0x0020df4c        0x0 contiki-cc2538dk.a(als-sensor.o)
 .v4_bx         0x0020df4c        0x0 contiki-cc2538dk.a(clock.o)
 .v4_bx         0x0020df4c        0x0 contiki-cc2538dk.a(rtimer-arch.o)
 .v4_bx         0x0020df4c        0x0 contiki-cc2538dk.a(uart.o)
 .v4_bx         0x0020df4c        0x0 contiki-cc2538dk.a(watchdog.o)
 .v4_bx         0x0020df4c        0x0 contiki-cc2538dk.a(nvic.o)
 .v4_bx         0x0020df4c        0x0 contiki-cc2538dk.a(cpu.o)
 .v4_bx         0x0020df4c        0x0 contiki-cc2538dk.a(sys-ctrl.o)
 .v4_bx         0x0020df4c        0x0 contiki-cc2538dk.a(gpio.o)
 .v4_bx         0x0020df4c        0x0 contiki-cc2538dk.a(ioc.o)
 .v4_bx         0x0020df4c        0x0 contiki-cc2538dk.a(adc.o)
 .v4_bx         0x0020df4c        0x0 contiki-cc2538dk.a(crypto.o)
 .v4_bx         0x0020df4c        0x0 contiki-cc2538dk.a(cc2538-rf.o)
 .v4_bx         0x0020df4c        0x0 contiki-cc2538dk.a(udma.o)
 .v4_bx         0x0020df4c        0x0 contiki-cc2538dk.a(lpm.o)
 .v4_bx         0x0020df4c        0x0 contiki-cc2538dk.a(dbg.o)
 .v4_bx         0x0020df4c        0x0 contiki-cc2538dk.a(ieee-addr.o)
 .v4_bx         0x0020df4c        0x0 contiki-cc2538dk.a(cc2538-temp-sen)
 .v4_bx         0x0020df4c        0x0 contiki-cc2538dk.a(vdd3-sensor.o)
 .v4_bx         0x0020df4c        0x0 contiki-cc2538dk.a(dbg-printf.o)
 .v4_bx         0x0020df4c        0x0 contiki-cc2538dk.a(dbg-snprintf.o)
 .v4_bx         0x0020df4c        0x0 contiki-cc2538dk.a(strformat.o)
 .v4_bx         0x0020df4c        0x0 contiki-cc2538dk.a(autostart.o)
 .v4_bx         0x0020df4c        0x0 contiki-cc2538dk.a(ctimer.o)
 .v4_bx         0x0020df4c        0x0 contiki-cc2538dk.a(energest.o)
 .v4_bx         0x0020df4c        0x0 contiki-cc2538dk.a(etimer.o)
 .v4_bx         0x0020df4c        0x0 contiki-cc2538dk.a(process.o)
 .v4_bx         0x0020df4c        0x0 contiki-cc2538dk.a(rtimer.o)
 .v4_bx         0x0020df4c        0x0 contiki-cc2538dk.a(timer.o)
 .v4_bx         0x0020df4c        0x0 contiki-cc2538dk.a(serial-line.o)
 .v4_bx         0x0020df4c        0x0 contiki-cc2538dk.a(list.o)
 .v4_bx         0x0020df4c        0x0 contiki-cc2538dk.a(random.o)
 .v4_bx         0x0020df4c        0x0 contiki-cc2538dk.a(ringbuf.o)
 .v4_bx         0x0020df4c        0x0 contiki-cc2538dk.a(sicslowpan.o)
 .v4_bx         0x0020df4c        0x0 contiki-cc2538dk.a(uip6.o)
 .v4_bx         0x0020df4c        0x0 contiki-cc2538dk.a(uip-ds6.o)
 .v4_bx         0x0020df4c        0x0 contiki-cc2538dk.a(uip-ds6-nbr.o)
 .v4_bx         0x0020df4c        0x0 contiki-cc2538dk.a(uip-ds6-route.o)
 .v4_bx         0x0020df4c        0x0 contiki-cc2538dk.a(uip-icmp6.o)
 .v4_bx         0x0020df4c        0x0 contiki-cc2538dk.a(uip-nd6.o)
 .v4_bx         0x0020df4c        0x0 contiki-cc2538dk.a(tcpip.o)
 .v4_bx         0x0020df4c        0x0 contiki-cc2538dk.a(tcp-socket.o)
 .v4_bx         0x0020df4c        0x0 contiki-cc2538dk.a(uip-debug.o)
 .v4_bx         0x0020df4c        0x0 contiki-cc2538dk.a(uiplib.o)
 .v4_bx         0x0020df4c        0x0 contiki-cc2538dk.a(linkaddr.o)
 .v4_bx         0x0020df4c        0x0 contiki-cc2538dk.a(nbr-table.o)
 .v4_bx         0x0020df4c        0x0 contiki-cc2538dk.a(netstack.o)
 .v4_bx         0x0020df4c        0x0 contiki-cc2538dk.a(packetbuf.o)
 .v4_bx         0x0020df4c        0x0 contiki-cc2538dk.a(queuebuf.o)
 .v4_bx         0x0020df4c        0x0 contiki-cc2538dk.a(contikimac.o)
 .v4_bx         0x0020df4c        0x0 contiki-cc2538dk.a(csma.o)
 .v4_bx         0x0020df4c        0x0 contiki-cc2538dk.a(framer-802154.o)
 .v4_bx         0x0020df4c        0x0 contiki-cc2538dk.a(framer.o)
 .v4_bx         0x0020df4c        0x0 contiki-cc2538dk.a(mac.o)
 .v4_bx         0x0020df4c        0x0 contiki-cc2538dk.a(mac-sequence.o)
 .v4_bx         0x0020df4c        0x0 contiki-cc2538dk.a(nullsec.o)
 .v4_bx         0x0020df4c        0x0 contiki-cc2538dk.a(netstack-aes.o)
 .v4_bx         0x0020df4c        0x0 contiki-cc2538dk.a(rpl.o)
 .v4_bx         0x0020df4c        0x0 contiki-cc2538dk.a(rpl-dag.o)
 .v4_bx         0x0020df4c        0x0 contiki-cc2538dk.a(rpl-icmp6.o)
 .v4_bx         0x0020df4c        0x0 contiki-cc2538dk.a(rpl-timers.o)
 .v4_bx         0x0020df4c        0x0 contiki-cc2538dk.a(rpl-mrhof.o)
 .v4_bx         0x0020df4c        0x0 contiki-cc2538dk.a(rpl-ext-header.)
 .v4_bx         0x0020df4c        0x0 contiki-cc2538dk.a(oled-arch.o)
 .v4_bx         0x0020df4c        0x0 contiki-cc2538dk.a(oled.o)
 .v4_bx         0x0020df4c        0x0 contiki-cc2538dk.a(stimer.o)
 .v4_bx         0x0020df4c        0x0 contiki-cc2538dk.a(memb.o)
 .v4_bx         0x0020df4c        0x0 contiki-cc2538dk.a(frame802154.o)
 .v4_bx         0x0020df4c        0x0 contiki-cc2538dk.a(aes-ccm.o)
 .v4_bx         0x0020df4c        0x0 /home/user/CodeSourcery/Sourcery_G++_Lite/bin/../lib/gcc/arm-none-eabi/4.3.2/thumb2/libgcc.a(_aeabi_uldivmod.o)
 .v4_bx         0x0020df4c        0x0 /home/user/CodeSourcery/Sourcery_G++_Lite/bin/../lib/gcc/arm-none-eabi/4.3.2/thumb2/libgcc.a(bpabi.o)
 .v4_bx         0x0020df4c        0x0 /home/user/CodeSourcery/Sourcery_G++_Lite/bin/../lib/gcc/arm-none-eabi/4.3.2/thumb2/libgcc.a(_dvmd_tls.o)
 .v4_bx         0x0020df4c        0x0 /home/user/CodeSourcery/Sourcery_G++_Lite/bin/../lib/gcc/arm-none-eabi/4.3.2/thumb2/libgcc.a(_divdi3.o)
 .v4_bx         0x0020df4c        0x0 /home/user/CodeSourcery/Sourcery_G++_Lite/bin/../lib/gcc/arm-none-eabi/4.3.2/thumb2/libgcc.a(_udivdi3.o)
 .v4_bx         0x0020df4c        0x0 /home/user/CodeSourcery/Sourcery_G++_Lite/bin/../lib/gcc/arm-none-eabi/4.3.2/thumb2/libgcc.a(_udivsi3.o)
 .v4_bx         0x0020df4c        0x0 /home/user/CodeSourcery/Sourcery_G++_Lite/bin/../lib/gcc/arm-none-eabi/4.3.2/thumb2/libgcc.a(_clz.o)
 .v4_bx         0x0020df4c        0x0 /home/user/CodeSourcery/Sourcery_G++_Lite/bin/../lib/gcc/arm-none-eabi/4.3.2/../../../../arm-none-eabi/lib/thumb2/libc.a(lib_a-memcmp.o)
 .v4_bx         0x0020df4c        0x0 /home/user/CodeSourcery/Sourcery_G++_Lite/bin/../lib/gcc/arm-none-eabi/4.3.2/../../../../arm-none-eabi/lib/thumb2/libc.a(lib_a-memcpy.o)
 .v4_bx         0x0020df4c        0x0 /home/user/CodeSourcery/Sourcery_G++_Lite/bin/../lib/gcc/arm-none-eabi/4.3.2/../../../../arm-none-eabi/lib/thumb2/libc.a(lib_a-memmove.o)
 .v4_bx         0x0020df4c        0x0 /home/user/CodeSourcery/Sourcery_G++_Lite/bin/../lib/gcc/arm-none-eabi/4.3.2/../../../../arm-none-eabi/lib/thumb2/libc.a(lib_a-memset.o)
 .v4_bx         0x0020df4c        0x0 /home/user/CodeSourcery/Sourcery_G++_Lite/bin/../lib/gcc/arm-none-eabi/4.3.2/../../../../arm-none-eabi/lib/thumb2/libc.a(lib_a-strlen.o)
 .v4_bx         0x0020df4c        0x0 /home/user/CodeSourcery/Sourcery_G++_Lite/bin/../lib/gcc/arm-none-eabi/4.3.2/../../../../arm-none-eabi/lib/thumb2/libc.a(lib_a-strncasecmp.o)
 .v4_bx         0x0020df4c        0x0 /home/user/CodeSourcery/Sourcery_G++_Lite/bin/../lib/gcc/arm-none-eabi/4.3.2/../../../../arm-none-eabi/lib/thumb2/libc.a(lib_a-strncmp.o)
 .v4_bx         0x0020df4c        0x0 /home/user/CodeSourcery/Sourcery_G++_Lite/bin/../lib/gcc/arm-none-eabi/4.3.2/../../../../arm-none-eabi/lib/thumb2/libc.a(lib_a-ctype_.o)

.socdata        0x20000000       0x40
 *(SORT(.udma_channel_control_table))
 .udma_channel_control_table
                0x20000000       0x40 contiki-cc2538dk.a(udma.o)

.data           0x20000040      0x21c load address 0x0020df4c
                0x20000040                _data = .
 *(SORT(.data*))
 .data.uart_response_process
                0x20000040       0x10 mqtt-demo.co
                0x20000040                uart_response_process
 .data.soil_process
                0x20000050       0x10 mqtt-demo.co
                0x20000050                soil_process
 .data.mqtt_demo_process
                0x20000060       0x10 mqtt-demo.co
                0x20000060                mqtt_demo_process
 .data.cc2538_demo_process
                0x20000070       0x10 mqtt-demo.co
                0x20000070                cc2538_demo_process
 .data.mqtt_process
                0x20000080       0x10 contiki-cc2538dk.a(mqtt.o)
                0x20000080                mqtt_process
 .data.sensors_process
                0x20000090       0x10 contiki-cc2538dk.a(sensors.o)
                0x20000090                sensors_process
 .data.sensors  0x200000a0       0x24 contiki-cc2538dk.a(smartrf-sensors)
                0x200000a0                sensors
 .data.cc2538_rf_process
                0x200000c4       0x10 contiki-cc2538dk.a(cc2538-rf.o)
                0x200000c4                cc2538_rf_process
 .data.ctxt     0x200000d4        0x8 contiki-cc2538dk.a(dbg-printf.o)
 .data.ctimer_process
                0x200000dc       0x10 contiki-cc2538dk.a(ctimer.o)
                0x200000dc                ctimer_process
 .data.etimer_process
                0x200000ec       0x10 contiki-cc2538dk.a(etimer.o)
                0x200000ec                etimer_process
 .data.serial_line_process
                0x200000fc       0x10 contiki-cc2538dk.a(serial-line.o)
                0x200000fc                serial_line_process
 .data.ds6_neighbors
                0x2000010c        0x4 contiki-cc2538dk.a(uip-ds6-nbr.o)
                0x2000010c                ds6_neighbors
 .data.ds6_neighbors_struct
                0x20000110       0x10 contiki-cc2538dk.a(uip-ds6-nbr.o)
 .data.defaultroutermemb
                0x20000120        0xc contiki-cc2538dk.a(uip-ds6-route.o)
 .data.nbr_routes_struct
                0x2000012c       0x10 contiki-cc2538dk.a(uip-ds6-route.o)
 .data.routememb
                0x2000013c        0xc contiki-cc2538dk.a(uip-ds6-route.o)
 .data.neighborroutememb
                0x20000148        0xc contiki-cc2538dk.a(uip-ds6-route.o)
 .data.echo_request_handler
                0x20000154        0xc contiki-cc2538dk.a(uip-icmp6.o)
 .data.echo_reply_handler
                0x20000160        0xc contiki-cc2538dk.a(uip-icmp6.o)
 .data.ns_input_handler
                0x2000016c        0xc contiki-cc2538dk.a(uip-nd6.o)
 .data.na_input_handler
                0x20000178        0xc contiki-cc2538dk.a(uip-nd6.o)
 .data.tcpip_process
                0x20000184       0x10 contiki-cc2538dk.a(tcpip.o)
                0x20000184                tcpip_process
 .data.tcp_socket_process
                0x20000194       0x10 contiki-cc2538dk.a(tcp-socket.o)
                0x20000194                tcp_socket_process
 .data.neighbor_addr_mem
                0x200001a4        0xc contiki-cc2538dk.a(nbr-table.o)
 .data.bufmem   0x200001b0        0xc contiki-cc2538dk.a(queuebuf.o)
 .data.buframmem
                0x200001bc        0xc contiki-cc2538dk.a(queuebuf.o)
 .data.neighbor_memb
                0x200001c8        0xc contiki-cc2538dk.a(csma.o)
 .data.packet_memb
                0x200001d4        0xc contiki-cc2538dk.a(csma.o)
 .data.metadata_memb
                0x200001e0        0xc contiki-cc2538dk.a(csma.o)
 .data.rpl_parents
                0x200001ec        0x4 contiki-cc2538dk.a(rpl-dag.o)
                0x200001ec                rpl_parents
 .data.rpl_parents_struct
                0x200001f0       0x10 contiki-cc2538dk.a(rpl-dag.o)
 .data.dao_ack_handler
                0x20000200        0xc contiki-cc2538dk.a(rpl-icmp6.o)
 .data.dis_handler
                0x2000020c        0xc contiki-cc2538dk.a(rpl-icmp6.o)
 .data.dao_handler
                0x20000218        0xc contiki-cc2538dk.a(rpl-icmp6.o)
 .data.dio_handler
                0x20000224        0xc contiki-cc2538dk.a(rpl-icmp6.o)
 .data.rpl_mrhof
                0x20000230       0x1c contiki-cc2538dk.a(rpl-mrhof.o)
                0x20000230                rpl_mrhof
 .data          0x2000024c        0x8 /home/user/CodeSourcery/Sourcery_G++_Lite/bin/../lib/gcc/arm-none-eabi/4.3.2/../../../../arm-none-eabi/lib/thumb2/libc.a(lib_a-ctype_.o)
                0x2000024c                __ctype_ptr
                0x20000250                __ctype_ptr__
 .data.RS485_CMD
                0x20000254        0x6 mqtt-demo.co
 .data.rf_channel
                0x2000025a        0x1 contiki-cc2538dk.a(cc2538-rf.o)
 .data.dao_sequence
                0x2000025b        0x1 contiki-cc2538dk.a(rpl-icmp6.o)
                0x2000025c                _edata = .
                0x0020df4c                _ldata = LOADADDR (.data)

.ARM.exidx      0x0020e168       0x10
 *(SORT(.ARM.exidx*))
 .ARM.exidx     0x0020e168        0x8 /home/user/CodeSourcery/Sourcery_G++_Lite/bin/../lib/gcc/arm-none-eabi/4.3.2/thumb2/libgcc.a(_divdi3.o)
 .ARM.exidx     0x0020e170        0x8 /home/user/CodeSourcery/Sourcery_G++_Lite/bin/../lib/gcc/arm-none-eabi/4.3.2/thumb2/libgcc.a(_udivdi3.o)

.bss            0x20000260     0x3434
                0x20000260                _bss = .
 *(SORT(.bss*))
 .bss.rt_ticks_startup
                0x20000260        0x8 contiki-cc2538dk.a(clock.o)
 .bss.rt_ticks_epoch
                0x20000268        0x8 contiki-cc2538dk.a(clock.o)
 .bss.connection_life
                0x20000270        0x8 mqtt-demo.co
 .bss.publish_periodic_timer
                0x20000278       0x10 mqtt-demo.co
 .bss.def_rt_rssi
                0x20000288        0x4 mqtt-demo.co
 .bss.et.5858   0x2000028c       0x10 mqtt-demo.co
 .bss.et.5881   0x2000029c       0x10 mqtt-demo.co
 .bss.echo_reply_notification
                0x200002ac        0x8 mqtt-demo.co
 .bss.ALL_L     0x200002b4        0x4 mqtt-demo.co
                0x200002b4                ALL_L
 .bss.msg_ptr   0x200002b8        0x4 mqtt-demo.co
 .bss.Pa_value  0x200002bc        0x4 mqtt-demo.co
                0x200002bc                Pa_value
 .bss.status    0x200002c0        0x4 mqtt-demo.co
                0x200002c0                status
 .bss.ct        0x200002c4       0x20 mqtt-demo.co
 .bss.res_num   0x200002e4        0x4 mqtt-demo.co
                0x200002e4                res_num
 .bss.echo_request_timer
                0x200002e8       0x10 mqtt-demo.co
 .bss.conf      0x200002f8       0xd4 mqtt-demo.co
 .bss.Temp      0x200003cc        0x4 mqtt-demo.co
                0x200003cc                Temp
 .bss.et.5838   0x200003d0       0x10 mqtt-demo.co
 .bss.conn      0x200003e0      0x760 mqtt-demo.co
 .bss.buf_ptr   0x20000b40        0x4 mqtt-demo.co
 .bss.conn.6115
                0x20000b44        0x4 contiki-cc2538dk.a(mqtt.o)
 .bss.mqtt_conn_list_list
                0x20000b48        0x4 contiki-cc2538dk.a(mqtt.o)
 .bss.i.1898    0x20000b4c        0x4 contiki-cc2538dk.a(sensors.o)
 .bss.events.1899
                0x20000b50        0x4 contiki-cc2538dk.a(sensors.o)
 .bss.debouncetimer
                0x20000b54        0x8 contiki-cc2538dk.a(button-sensor.o)
 .bss.next_trigger
                0x20000b5c        0x4 contiki-cc2538dk.a(rtimer-arch.o)
 .bss.input_handler
                0x20000b60        0x8 contiki-cc2538dk.a(uart.o)
 .bss.interrupt_disable
                0x20000b68        0x4 contiki-cc2538dk.a(nvic.o)
 .bss.interrupt_pend
                0x20000b6c        0x4 contiki-cc2538dk.a(nvic.o)
 .bss.interrupt_unpend
                0x20000b70        0x4 contiki-cc2538dk.a(nvic.o)
 .bss.interrupt_enable
                0x20000b74        0x4 contiki-cc2538dk.a(nvic.o)
 .bss.gpio_callbacks
                0x20000b78       0x80 contiki-cc2538dk.a(gpio.o)
 .bss.ioc_sel   0x20000bf8        0x4 contiki-cc2538dk.a(ioc.o)
 .bss.ioc_over  0x20000bfc        0x4 contiki-cc2538dk.a(ioc.o)
 .bss.notification_process
                0x20000c00        0x4 contiki-cc2538dk.a(crypto.o)
 .bss.periph_permit_pm1_funcs
                0x20000c04        0xc contiki-cc2538dk.a(lpm.o)
 .bss.ctimer_list_list
                0x20000c10        0x4 contiki-cc2538dk.a(ctimer.o)
 .bss.timerlist
                0x20000c14        0x4 contiki-cc2538dk.a(etimer.o)
 .bss.next_expiration
                0x20000c18        0x4 contiki-cc2538dk.a(etimer.o)
 .bss.data.2445
                0x20000c1c        0x4 contiki-cc2538dk.a(process.o)
 .bss.process_current
                0x20000c20        0x4 contiki-cc2538dk.a(process.o)
                0x20000c20                process_current
 .bss.process_list
                0x20000c24        0x4 contiki-cc2538dk.a(process.o)
                0x20000c24                process_list
 .bss.events    0x20000c28      0x180 contiki-cc2538dk.a(process.o)
 .bss.receiver.2446
                0x20000da8        0x4 contiki-cc2538dk.a(process.o)
 .bss.p.2447    0x20000dac        0x4 contiki-cc2538dk.a(process.o)
 .bss.next_rtimer
                0x20000db0        0x4 contiki-cc2538dk.a(rtimer.o)
 .bss.rxbuf     0x20000db4        0x8 contiki-cc2538dk.a(serial-line.o)
 .bss.ptr.1864  0x20000dbc        0x4 contiki-cc2538dk.a(serial-line.o)
 .bss.context   0x20000dc0        0x4 contiki-cc2538dk.a(sicslowpan.o)
 .bss.last_rssi
                0x20000dc4        0x4 contiki-cc2538dk.a(sicslowpan.o)
 .bss.hc06_ptr  0x20000dc8        0x4 contiki-cc2538dk.a(sicslowpan.o)
 .bss.last_tx_status
                0x20000dcc        0x4 contiki-cc2538dk.a(sicslowpan.o)
 .bss.reass_timer
                0x20000dd0        0x8 contiki-cc2538dk.a(sicslowpan.o)
 .bss.packetbuf_ptr
                0x20000dd8        0x4 contiki-cc2538dk.a(sicslowpan.o)
 .bss.sicslowpan_aligned_buf
                0x20000ddc      0x514 contiki-cc2538dk.a(sicslowpan.o)
 .bss.packetbuf_payload_len
                0x200012f0        0x4 contiki-cc2538dk.a(sicslowpan.o)
 .bss.callback  0x200012f4        0x4 contiki-cc2538dk.a(sicslowpan.o)
 .bss.locmaddr  0x200012f8        0x4 contiki-cc2538dk.a(uip-ds6.o)
 .bss.locprefix
                0x200012fc        0x4 contiki-cc2538dk.a(uip-ds6.o)
 .bss.locaddr   0x20001300        0x4 contiki-cc2538dk.a(uip-ds6.o)
 .bss._ds6_neighbors_mem
                0x20001304      0x320 contiki-cc2538dk.a(uip-ds6-nbr.o)
 .bss.defaultroutermemb_memb_mem
                0x20001624       0x40 contiki-cc2538dk.a(uip-ds6-route.o)
 .bss.num_routes
                0x20001664        0x4 contiki-cc2538dk.a(uip-ds6-route.o)
 .bss.neighborroutememb_memb_mem
                0x20001668       0xa0 contiki-cc2538dk.a(uip-ds6-route.o)
 .bss.defaultrouterlist_list
                0x20001708        0x4 contiki-cc2538dk.a(uip-ds6-route.o)
 .bss._nbr_routes_mem
                0x2000170c       0xa0 contiki-cc2538dk.a(uip-ds6-route.o)
 .bss.routememb_memb_mem
                0x200017ac      0x320 contiki-cc2538dk.a(uip-ds6-route.o)
 .bss.notificationlist_list
                0x20001acc        0x4 contiki-cc2538dk.a(uip-ds6-route.o)
 .bss.routelist_list
                0x20001ad0        0x4 contiki-cc2538dk.a(uip-ds6-route.o)
 .bss.echo_reply_callback_list_list
                0x20001ad4        0x4 contiki-cc2538dk.a(uip-icmp6.o)
 .bss.input_handler_list_list
                0x20001ad8        0x4 contiki-cc2538dk.a(uip-icmp6.o)
 .bss.defrt     0x20001adc        0x4 contiki-cc2538dk.a(uip-nd6.o)
 .bss.nbr       0x20001ae0        0x4 contiki-cc2538dk.a(uip-nd6.o)
 .bss.nd6_opt_llao
                0x20001ae4        0x4 contiki-cc2538dk.a(uip-nd6.o)
 .bss.addr      0x20001ae8        0x4 contiki-cc2538dk.a(uip-nd6.o)
 .bss.s         0x20001aec       0x44 contiki-cc2538dk.a(tcpip.o)
 .bss.periodic  0x20001b30       0x10 contiki-cc2538dk.a(tcpip.o)
 .bss.outputfunc
                0x20001b40        0x4 contiki-cc2538dk.a(tcpip.o)
 .bss.socketlist_list
                0x20001b44        0x4 contiki-cc2538dk.a(tcp-socket.o)
 .bss.nbr_table_keys_list
                0x20001b48        0x4 contiki-cc2538dk.a(nbr-table.o)
 .bss.num_tables
                0x20001b4c        0x4 contiki-cc2538dk.a(nbr-table.o)
 .bss.neighbor_addr_mem_memb_mem
                0x20001b50       0xf0 contiki-cc2538dk.a(nbr-table.o)
 .bss.all_tables
                0x20001c40       0x20 contiki-cc2538dk.a(nbr-table.o)
 .bss.packetbufptr
                0x20001c60        0x4 contiki-cc2538dk.a(packetbuf.o)
 .bss.packetbuf_aligned
                0x20001c64       0xb0 contiki-cc2538dk.a(packetbuf.o)
 .bss.bufmem_memb_mem
                0x20001d14       0x20 contiki-cc2538dk.a(queuebuf.o)
 .bss.cycle_start
                0x20001d34        0x4 contiki-cc2538dk.a(contikimac.o)
 .bss.we_are_receiving_burst
                0x20001d38        0x4 contiki-cc2538dk.a(contikimac.o)
 .bss.rt        0x20001d3c        0xc contiki-cc2538dk.a(contikimac.o)
 .bss.start.4063
                0x20001d48        0x4 contiki-cc2538dk.a(contikimac.o)
 .bss.ct.4266   0x20001d4c       0x20 contiki-cc2538dk.a(contikimac.o)
 .bss.metadata_memb_memb_mem
                0x20001d6c       0x60 contiki-cc2538dk.a(csma.o)
 .bss.packet_memb_memb_mem
                0x20001dcc       0x60 contiki-cc2538dk.a(csma.o)
 .bss.neighbor_list_list
                0x20001e2c        0x4 contiki-cc2538dk.a(csma.o)
 .bss.neighbor_memb_memb_mem
                0x20001e30       0x70 contiki-cc2538dk.a(csma.o)
 .bss._rpl_parents_mem
                0x20001ea0      0x190 contiki-cc2538dk.a(rpl-dag.o)
 .bss.periodic_timer
                0x20002030       0x20 contiki-cc2538dk.a(rpl-timers.o)
 .bss.seq_nr_value
                0x20002050        0x2 mqtt-demo.co
 .bss.reass_tag
                0x20002052        0x2 contiki-cc2538dk.a(sicslowpan.o)
 .bss.sicslowpan_len
                0x20002054        0x2 contiki-cc2538dk.a(sicslowpan.o)
 .bss.my_tag    0x20002056        0x2 contiki-cc2538dk.a(sicslowpan.o)
 .bss.processed_ip_in_len
                0x20002058        0x2 contiki-cc2538dk.a(sicslowpan.o)
 .bss.tmp16     0x2000205a        0x2 contiki-cc2538dk.a(uip6.o)
 .bss.lastport  0x2000205c        0x2 contiki-cc2538dk.a(uip6.o)
 .bss.loc_fipaddr
                0x2000205e       0x10 contiki-cc2538dk.a(uip-ds6.o)
 .bss.tmp_ipaddr
                0x2000206e       0x10 contiki-cc2538dk.a(uip-icmp6.o)
 .bss.buflen    0x2000207e        0x2 contiki-cc2538dk.a(packetbuf.o)
 .bss.bufptr    0x20002080        0x2 contiki-cc2538dk.a(packetbuf.o)
 .bss.buframmem_memb_mem
                0x20002082      0x580 contiki-cc2538dk.a(queuebuf.o)
 .bss.pt        0x20002602        0x2 contiki-cc2538dk.a(contikimac.o)
 .bss.seqno.3335
                0x20002604        0x2 contiki-cc2538dk.a(csma.o)
 .bss.next_dis  0x20002606        0x2 contiki-cc2538dk.a(rpl-timers.o)
 .bss.pub_topic
                0x20002608       0x40 mqtt-demo.co
 .bss.state     0x20002648        0x1 mqtt-demo.co
 .bss.sub_topic
                0x20002649       0x40 mqtt-demo.co
 .bss.connect_attempt
                0x20002689        0x1 mqtt-demo.co
 .bss.client_id
                0x2000268a       0x40 mqtt-demo.co
 .bss.app_buffer
                0x200026ca      0x200 mqtt-demo.co
 .bss.mqtt_do_pingreq_event
                0x200028ca        0x1 contiki-cc2538dk.a(mqtt.o)
 .bss.mqtt_event_min
                0x200028cb        0x1 contiki-cc2538dk.a(mqtt.o)
 .bss.mqtt_event_max
                0x200028cc        0x1 contiki-cc2538dk.a(mqtt.o)
 .bss.mqtt_do_connect_mqtt_event
                0x200028cd        0x1 contiki-cc2538dk.a(mqtt.o)
 .bss.mqtt_do_publish_event
                0x200028ce        0x1 contiki-cc2538dk.a(mqtt.o)
 .bss.mqtt_do_subscribe_event
                0x200028cf        0x1 contiki-cc2538dk.a(mqtt.o)
 .bss.mqtt_continue_send_event
                0x200028d0        0x1 contiki-cc2538dk.a(mqtt.o)
 .bss.mqtt_do_disconnect_mqtt_event
                0x200028d1        0x1 contiki-cc2538dk.a(mqtt.o)
 .bss.mqtt_abort_now_event
                0x200028d2        0x1 contiki-cc2538dk.a(mqtt.o)
 .bss.inited.6176
                0x200028d3        0x1 contiki-cc2538dk.a(mqtt.o)
 .bss.mqtt_do_unsubscribe_event
                0x200028d4        0x1 contiki-cc2538dk.a(mqtt.o)
 .bss.mqtt_do_connect_tcp_event
                0x200028d5        0x1 contiki-cc2538dk.a(mqtt.o)
 .bss.leds      0x200028d6        0x1 contiki-cc2538dk.a(leds.o)
 .bss.num_sensors
                0x200028d7        0x1 contiki-cc2538dk.a(sensors.o)
 .bss.rf_flags  0x200028d8        0x1 contiki-cc2538dk.a(cc2538-rf.o)
 .bss.max_pm    0x200028d9        0x1 contiki-cc2538dk.a(lpm.o)
 .bss.initialized
                0x200028da        0x1 contiki-cc2538dk.a(ctimer.o)
 .bss.fevent    0x200028db        0x1 contiki-cc2538dk.a(process.o)
 .bss.ev.2444   0x200028dc        0x1 contiki-cc2538dk.a(process.o)
 .bss.nevents   0x200028dd        0x1 contiki-cc2538dk.a(process.o)
 .bss.lastevent
                0x200028de        0x1 contiki-cc2538dk.a(process.o)
 .bss.poll_requested
                0x200028df        0x1 contiki-cc2538dk.a(process.o)
 .bss.snum.2490
                0x200028e0        0x1 contiki-cc2538dk.a(process.o)
 .bss.rxbuf_data
                0x200028e1       0x80 contiki-cc2538dk.a(serial-line.o)
 .bss.overflow.1853
                0x20002961        0x1 contiki-cc2538dk.a(serial-line.o)
 .bss.buf.1863  0x20002962       0x80 contiki-cc2538dk.a(serial-line.o)
 .bss.uncomp_hdr_len
                0x200029e2        0x1 contiki-cc2538dk.a(sicslowpan.o)
 .bss.addr_contexts
                0x200029e3        0xa contiki-cc2538dk.a(sicslowpan.o)
 .bss.packetbuf_hdr_len
                0x200029ed        0x1 contiki-cc2538dk.a(sicslowpan.o)
 .bss.uip_ext_len
                0x200029ee        0x1 contiki-cc2538dk.a(uip6.o)
                0x200029ee                uip_ext_len
 .bss.uip_ext_bitmap
                0x200029ef        0x1 contiki-cc2538dk.a(uip6.o)
                0x200029ef                uip_ext_bitmap
 .bss.iss       0x200029f0        0x4 contiki-cc2538dk.a(uip6.o)
 .bss.uip_ext_opt_offset
                0x200029f4        0x1 contiki-cc2538dk.a(uip6.o)
                0x200029f4                uip_ext_opt_offset
 .bss.c         0x200029f5        0x1 contiki-cc2538dk.a(uip6.o)
 .bss.opt       0x200029f6        0x1 contiki-cc2538dk.a(uip6.o)
 .bss.defaultroutermemb_memb_count
                0x200029f7        0x2 contiki-cc2538dk.a(uip-ds6-route.o)
 .bss.neighborroutememb_memb_count
                0x200029f9       0x14 contiki-cc2538dk.a(uip-ds6-route.o)
 .bss.routememb_memb_count
                0x20002a0d       0x14 contiki-cc2538dk.a(uip-ds6-route.o)
 .bss.nd6_opt_offset
                0x20002a21        0x1 contiki-cc2538dk.a(uip-nd6.o)
 .bss.i.4806    0x20002a22        0x1 contiki-cc2538dk.a(tcpip.o)
 .bss.i.4873    0x20002a23        0x1 contiki-cc2538dk.a(tcpip.o)
 .bss.i.4991    0x20002a24        0x1 contiki-cc2538dk.a(tcpip.o)
 .bss.i.4966    0x20002a25        0x1 contiki-cc2538dk.a(tcpip.o)
 .bss.inited.4696
                0x20002a26        0x1 contiki-cc2538dk.a(tcp-socket.o)
 .bss.neighbor_addr_mem_memb_count
                0x20002a27       0x14 contiki-cc2538dk.a(nbr-table.o)
 .bss.locked_map
                0x20002a3b       0x14 contiki-cc2538dk.a(nbr-table.o)
 .bss.used_map  0x20002a4f       0x14 contiki-cc2538dk.a(nbr-table.o)
 .bss.hdrptr    0x20002a63        0x1 contiki-cc2538dk.a(packetbuf.o)
 .bss.buframmem_memb_count
                0x20002a64        0x8 contiki-cc2538dk.a(queuebuf.o)
 .bss.bufmem_memb_count
                0x20002a6c        0x8 contiki-cc2538dk.a(queuebuf.o)
 .bss.contikimac_keep_radio_on
                0x20002a74        0x1 contiki-cc2538dk.a(contikimac.o)
 .bss.packet_seen.4057
                0x20002a75        0x1 contiki-cc2538dk.a(contikimac.o)
 .bss.radio_is_on
                0x20002a76        0x1 contiki-cc2538dk.a(contikimac.o)
 .bss.we_are_sending
                0x20002a77        0x1 contiki-cc2538dk.a(contikimac.o)
 .bss.count.4058
                0x20002a78        0x1 contiki-cc2538dk.a(contikimac.o)
 .bss.silence_periods.4064
                0x20002a79        0x1 contiki-cc2538dk.a(contikimac.o)
 .bss.periods.4065
                0x20002a7a        0x1 contiki-cc2538dk.a(contikimac.o)
 .bss.contikimac_is_on
                0x20002a7b        0x1 contiki-cc2538dk.a(contikimac.o)
 .bss.packet_memb_memb_count
                0x20002a7c        0x8 contiki-cc2538dk.a(csma.o)
 .bss.metadata_memb_memb_count
                0x20002a84        0x8 contiki-cc2538dk.a(csma.o)
 .bss.initialized.3334
                0x20002a8c        0x1 contiki-cc2538dk.a(csma.o)
 .bss.neighbor_memb_memb_count
                0x20002a8d        0x2 contiki-cc2538dk.a(csma.o)
 .bss.mac_dsn   0x20002a8f        0x1 contiki-cc2538dk.a(framer-802154.o)
 .bss.initialized
                0x20002a90        0x1 contiki-cc2538dk.a(framer-802154.o)
 .bss.received_seqnos
                0x20002a91       0x90 contiki-cc2538dk.a(mac-sequence.o)
 .bss.key       0x20002b21       0x10 contiki-cc2538dk.a(netstack-aes.o)
 .bss.key_set   0x20002b31        0x1 contiki-cc2538dk.a(netstack-aes.o)
 .bss.mode      0x20002b32        0x1 contiki-cc2538dk.a(rpl.o)
 .bss.dio_send_ok
                0x20002b33        0x1 contiki-cc2538dk.a(rpl-timers.o)
 *(SORT(COMMON))
 COMMON         0x20002b34      0x878 contiki-cc2538dk.a(uip6.o)
                0x20002b34                uip_len
                0x20002b38                uip_sappdata
                0x20002b3c                uip_acc32
                0x20002b40                uip_lladdr
                0x20002b48                uip_aligned_buf
                0x2000305c                uip_flags
                0x20003060                uip_next_hdr
                0x20003064                uip_udp_conn
                0x20003068                uip_appdata
                0x2000306c                uip_conn
                0x20003070                uip_conns
                0x20003250                uip_icmp6_conns
                0x20003258                uip_listenports
                0x20003268                uip_slen
                0x2000326c                uip_udp_conns
 COMMON         0x200033ac      0x174 contiki-cc2538dk.a(uip-ds6.o)
                0x200033ac                uip_ds6_timer_ra
                0x200033b4                uip_ds6_if
                0x200034ac                uip_ds6_netif_addr_list_offset
                0x200034ad                uip_ds6_addr_size
                0x200034b0                uip_ds6_prefix_list
                0x20003510                uip_ds6_timer_periodic
 COMMON         0x20003520      0x128 contiki-cc2538dk.a(rpl-dag.o)
                0x20003520                default_instance
                0x20003524                instance_table
 COMMON         0x20003648       0x2e contiki-cc2538dk.a(packetbuf.o)
                0x20003648                packetbuf_addrs
                0x20003658                packetbuf_attrs
 COMMON         0x20003676        0x1 contiki-cc2538dk.a(mqtt.o)
                0x20003676                mqtt_update_event
 COMMON         0x20003677        0x1 contiki-cc2538dk.a(sensors.o)
                0x20003677                sensors_event
 COMMON         0x20003678        0x9 contiki-cc2538dk.a(smartrf-sensors)
                0x20003678                sensors_flags
 COMMON         0x20003681        0x1 contiki-cc2538dk.a(serial-line.o)
                0x20003681                serial_line_event_message
 COMMON         0x20003682        0x8 contiki-cc2538dk.a(sicslowpan.o)
                0x20003682                frag_sender
 COMMON         0x2000368a        0x2 contiki-cc2538dk.a(tcpip.o)
                0x2000368a                tcpip_event
                0x2000368b                tcpip_icmp6_event
 COMMON         0x2000368c        0x8 contiki-cc2538dk.a(linkaddr.o)
                0x2000368c                linkaddr_node_addr
                0x20003694                _ebss = .

.stack          0x20003694      0x800
 *(SORT(.stack))
 .stack         0x20003694      0x800 obj_cc2538dk/startup-gcc.o

.flashcca       0x0027ffd4       0x2c
 *(SORT(.flashcca))
 .flashcca      0x0027ffd4       0x2c obj_cc2538dk/startup-gcc.o
                0x0027ffd4                __cca
OUTPUT(mqtt-demo.elf elf32-littlearm)

.comment        0x00000000      0xccc
 .comment       0x00000000       0x2a obj_cc2538dk/startup-gcc.o
 .comment       0x0000002a       0x2a mqtt-demo.co
 .comment       0x00000054       0x2a contiki-cc2538dk.a(mqtt.o)
 .comment       0x0000007e       0x2a contiki-cc2538dk.a(leds.o)
 .comment       0x000000a8       0x2a contiki-cc2538dk.a(leds-arch.o)
 .comment       0x000000d2       0x2a contiki-cc2538dk.a(contiki-main.o)
 .comment       0x000000fc       0x2a contiki-cc2538dk.a(sensors.o)
 .comment       0x00000126       0x2a contiki-cc2538dk.a(smartrf-sensors)
 .comment       0x00000150       0x2a contiki-cc2538dk.a(button-sensor.o)
 .comment       0x0000017a       0x2a contiki-cc2538dk.a(als-sensor.o)
 .comment       0x000001a4       0x2a contiki-cc2538dk.a(clock.o)
 .comment       0x000001ce       0x2a contiki-cc2538dk.a(rtimer-arch.o)
 .comment       0x000001f8       0x2a contiki-cc2538dk.a(uart.o)
 .comment       0x00000222       0x2a contiki-cc2538dk.a(watchdog.o)
 .comment       0x0000024c       0x2a contiki-cc2538dk.a(nvic.o)
 .comment       0x00000276       0x2a contiki-cc2538dk.a(cpu.o)
 .comment       0x000002a0       0x2a contiki-cc2538dk.a(sys-ctrl.o)
 .comment       0x000002ca       0x2a contiki-cc2538dk.a(gpio.o)
 .comment       0x000002f4       0x2a contiki-cc2538dk.a(ioc.o)
 .comment       0x0000031e       0x2a contiki-cc2538dk.a(adc.o)
 .comment       0x00000348       0x2a contiki-cc2538dk.a(crypto.o)
 .comment       0x00000372       0x2a contiki-cc2538dk.a(cc2538-rf.o)
 .comment       0x0000039c       0x2a contiki-cc2538dk.a(udma.o)
 .comment       0x000003c6       0x2a contiki-cc2538dk.a(lpm.o)
 .comment       0x000003f0       0x2a contiki-cc2538dk.a(dbg.o)
 .comment       0x0000041a       0x2a contiki-cc2538dk.a(ieee-addr.o)
 .comment       0x00000444       0x2a contiki-cc2538dk.a(cc2538-temp-sen)
 .comment       0x0000046e       0x2a contiki-cc2538dk.a(vdd3-sensor.o)
 .comment       0x00000498       0x2a contiki-cc2538dk.a(dbg-printf.o)
 .comment       0x000004c2       0x2a contiki-cc2538dk.a(dbg-snprintf.o)
 .comment       0x000004ec       0x2a contiki-cc2538dk.a(strformat.o)
 .comment       0x00000516       0x2a contiki-cc2538dk.a(autostart.o)
 .comment       0x00000540       0x2a contiki-cc2538dk.a(ctimer.o)
 .comment       0x0000056a       0x2a contiki-cc2538dk.a(energest.o)
 .comment       0x00000594       0x2a contiki-cc2538dk.a(etimer.o)
 .comment       0x000005be       0x2a contiki-cc2538dk.a(process.o)
 .comment       0x000005e8       0x2a contiki-cc2538dk.a(rtimer.o)
 .comment       0x00000612       0x2a contiki-cc2538dk.a(timer.o)
 .comment       0x0000063c       0x2a contiki-cc2538dk.a(serial-line.o)
 .comment       0x00000666       0x2a contiki-cc2538dk.a(list.o)
 .comment       0x00000690       0x2a contiki-cc2538dk.a(random.o)
 .comment       0x000006ba       0x2a contiki-cc2538dk.a(ringbuf.o)
 .comment       0x000006e4       0x2a contiki-cc2538dk.a(sicslowpan.o)
 .comment       0x0000070e       0x2a contiki-cc2538dk.a(uip6.o)
 .comment       0x00000738       0x2a contiki-cc2538dk.a(uip-ds6.o)
 .comment       0x00000762       0x2a contiki-cc2538dk.a(uip-ds6-nbr.o)
 .comment       0x0000078c       0x2a contiki-cc2538dk.a(uip-ds6-route.o)
 .comment       0x000007b6       0x2a contiki-cc2538dk.a(uip-icmp6.o)
 .comment       0x000007e0       0x2a contiki-cc2538dk.a(uip-nd6.o)
 .comment       0x0000080a       0x2a contiki-cc2538dk.a(tcpip.o)
 .comment       0x00000834       0x2a contiki-cc2538dk.a(tcp-socket.o)
 .comment       0x0000085e       0x2a contiki-cc2538dk.a(uip-debug.o)
 .comment       0x00000888       0x2a contiki-cc2538dk.a(uiplib.o)
 .comment       0x000008b2       0x2a contiki-cc2538dk.a(linkaddr.o)
 .comment       0x000008dc       0x2a contiki-cc2538dk.a(nbr-table.o)
 .comment       0x00000906       0x2a contiki-cc2538dk.a(netstack.o)
 .comment       0x00000930       0x2a contiki-cc2538dk.a(packetbuf.o)
 .comment       0x0000095a       0x2a contiki-cc2538dk.a(queuebuf.o)
 .comment       0x00000984       0x2a contiki-cc2538dk.a(contikimac.o)
 .comment       0x000009ae       0x2a contiki-cc2538dk.a(csma.o)
 .comment       0x000009d8       0x2a contiki-cc2538dk.a(framer-802154.o)
 .comment       0x00000a02       0x2a contiki-cc2538dk.a(framer.o)
 .comment       0x00000a2c       0x2a contiki-cc2538dk.a(mac.o)
 .comment       0x00000a56       0x2a contiki-cc2538dk.a(mac-sequence.o)
 .comment       0x00000a80       0x2a contiki-cc2538dk.a(nullsec.o)
 .comment       0x00000aaa       0x2a contiki-cc2538dk.a(netstack-aes.o)
 .comment       0x00000ad4       0x2a contiki-cc2538dk.a(rpl.o)
 .comment       0x00000afe       0x2a contiki-cc2538dk.a(rpl-dag.o)
 .comment       0x00000b28       0x2a contiki-cc2538dk.a(rpl-icmp6.o)
 .comment       0x00000b52       0x2a contiki-cc2538dk.a(rpl-timers.o)
 .comment       0x00000b7c       0x2a contiki-cc2538dk.a(rpl-mrhof.o)
 .comment       0x00000ba6       0x2a contiki-cc2538dk.a(rpl-ext-header.)
 .comment       0x00000bd0       0x2a contiki-cc2538dk.a(oled-arch.o)
 .comment       0x00000bfa       0x2a contiki-cc2538dk.a(oled.o)
 .comment       0x00000c24       0x2a contiki-cc2538dk.a(stimer.o)
 .comment       0x00000c4e       0x2a contiki-cc2538dk.a(memb.o)
 .comment       0x00000c78       0x2a contiki-cc2538dk.a(frame802154.o)
 .comment       0x00000ca2       0x2a contiki-cc2538dk.a(aes-ccm.o)

.ARM.attributes
                0x00000000       0x31
 .ARM.attributes
                0x00000000       0x31 obj_cc2538dk/startup-gcc.o
 .ARM.attributes
                0x00000031       0x31 mqtt-demo.co
 .ARM.attributes
                0x00000062       0x31 contiki-cc2538dk.a(mqtt.o)
 .ARM.attributes
                0x00000093       0x31 contiki-cc2538dk.a(leds.o)
 .ARM.attributes
                0x000000c4       0x31 contiki-cc2538dk.a(leds-arch.o)
 .ARM.attributes
                0x000000f5       0x31 contiki-cc2538dk.a(contiki-main.o)
 .ARM.attributes
                0x00000126       0x31 contiki-cc2538dk.a(sensors.o)
 .ARM.attributes
                0x00000157       0x2f contiki-cc2538dk.a(smartrf-sensors)
 .ARM.attributes
                0x00000186       0x31 contiki-cc2538dk.a(button-sensor.o)
 .ARM.attributes
                0x000001b7       0x31 contiki-cc2538dk.a(als-sensor.o)
 .ARM.attributes
                0x000001e8       0x31 contiki-cc2538dk.a(clock.o)
 .ARM.attributes
                0x00000219       0x31 contiki-cc2538dk.a(rtimer-arch.o)
 .ARM.attributes
                0x0000024a       0x31 contiki-cc2538dk.a(uart.o)
 .ARM.attributes
                0x0000027b       0x31 contiki-cc2538dk.a(watchdog.o)
 .ARM.attributes
                0x000002ac       0x31 contiki-cc2538dk.a(nvic.o)
 .ARM.attributes
                0x000002dd       0x31 contiki-cc2538dk.a(cpu.o)
 .ARM.attributes
                0x0000030e       0x31 contiki-cc2538dk.a(sys-ctrl.o)
 .ARM.attributes
                0x0000033f       0x31 contiki-cc2538dk.a(gpio.o)
 .ARM.attributes
                0x00000370       0x31 contiki-cc2538dk.a(ioc.o)
 .ARM.attributes
                0x000003a1       0x31 contiki-cc2538dk.a(adc.o)
 .ARM.attributes
                0x000003d2       0x31 contiki-cc2538dk.a(crypto.o)
 .ARM.attributes
                0x00000403       0x31 contiki-cc2538dk.a(cc2538-rf.o)
 .ARM.attributes
                0x00000434       0x31 contiki-cc2538dk.a(udma.o)
 .ARM.attributes
                0x00000465       0x31 contiki-cc2538dk.a(lpm.o)
 .ARM.attributes
                0x00000496       0x31 contiki-cc2538dk.a(dbg.o)
 .ARM.attributes
                0x000004c7       0x31 contiki-cc2538dk.a(ieee-addr.o)
 .ARM.attributes
                0x000004f8       0x31 contiki-cc2538dk.a(cc2538-temp-sen)
 .ARM.attributes
                0x00000529       0x31 contiki-cc2538dk.a(vdd3-sensor.o)
 .ARM.attributes
                0x0000055a       0x31 contiki-cc2538dk.a(dbg-printf.o)
 .ARM.attributes
                0x0000058b       0x31 contiki-cc2538dk.a(dbg-snprintf.o)
 .ARM.attributes
                0x000005bc       0x31 contiki-cc2538dk.a(strformat.o)
 .ARM.attributes
                0x000005ed       0x31 contiki-cc2538dk.a(autostart.o)
 .ARM.attributes
                0x0000061e       0x31 contiki-cc2538dk.a(ctimer.o)
 .ARM.attributes
                0x0000064f       0x31 contiki-cc2538dk.a(energest.o)
 .ARM.attributes
                0x00000680       0x31 contiki-cc2538dk.a(etimer.o)
 .ARM.attributes
                0x000006b1       0x31 contiki-cc2538dk.a(process.o)
 .ARM.attributes
                0x000006e2       0x31 contiki-cc2538dk.a(rtimer.o)
 .ARM.attributes
                0x00000713       0x31 contiki-cc2538dk.a(timer.o)
 .ARM.attributes
                0x00000744       0x31 contiki-cc2538dk.a(serial-line.o)
 .ARM.attributes
                0x00000775       0x31 contiki-cc2538dk.a(list.o)
 .ARM.attributes
                0x000007a6       0x31 contiki-cc2538dk.a(random.o)
 .ARM.attributes
                0x000007d7       0x31 contiki-cc2538dk.a(ringbuf.o)
 .ARM.attributes
                0x00000808       0x31 contiki-cc2538dk.a(sicslowpan.o)
 .ARM.attributes
                0x00000839       0x31 contiki-cc2538dk.a(uip6.o)
 .ARM.attributes
                0x0000086a       0x31 contiki-cc2538dk.a(uip-ds6.o)
 .ARM.attributes
                0x0000089b       0x31 contiki-cc2538dk.a(uip-ds6-nbr.o)
 .ARM.attributes
                0x000008cc       0x31 contiki-cc2538dk.a(uip-ds6-route.o)
 .ARM.attributes
                0x000008fd       0x31 contiki-cc2538dk.a(uip-icmp6.o)
 .ARM.attributes
                0x0000092e       0x31 contiki-cc2538dk.a(uip-nd6.o)
 .ARM.attributes
                0x0000095f       0x31 contiki-cc2538dk.a(tcpip.o)
 .ARM.attributes
                0x00000990       0x31 contiki-cc2538dk.a(tcp-socket.o)
 .ARM.attributes
                0x000009c1       0x31 contiki-cc2538dk.a(uip-debug.o)
 .ARM.attributes
                0x000009f2       0x31 contiki-cc2538dk.a(uiplib.o)
 .ARM.attributes
                0x00000a23       0x31 contiki-cc2538dk.a(linkaddr.o)
 .ARM.attributes
                0x00000a54       0x31 contiki-cc2538dk.a(nbr-table.o)
 .ARM.attributes
                0x00000a85       0x31 contiki-cc2538dk.a(netstack.o)
 .ARM.attributes
                0x00000ab6       0x31 contiki-cc2538dk.a(packetbuf.o)
 .ARM.attributes
                0x00000ae7       0x31 contiki-cc2538dk.a(queuebuf.o)
 .ARM.attributes
                0x00000b18       0x31 contiki-cc2538dk.a(contikimac.o)
 .ARM.attributes
                0x00000b49       0x31 contiki-cc2538dk.a(csma.o)
 .ARM.attributes
                0x00000b7a       0x31 contiki-cc2538dk.a(framer-802154.o)
 .ARM.attributes
                0x00000bab       0x31 contiki-cc2538dk.a(framer.o)
 .ARM.attributes
                0x00000bdc       0x31 contiki-cc2538dk.a(mac.o)
 .ARM.attributes
                0x00000c0d       0x31 contiki-cc2538dk.a(mac-sequence.o)
 .ARM.attributes
                0x00000c3e       0x31 contiki-cc2538dk.a(nullsec.o)
 .ARM.attributes
                0x00000c6f       0x31 contiki-cc2538dk.a(netstack-aes.o)
 .ARM.attributes
                0x00000ca0       0x31 contiki-cc2538dk.a(rpl.o)
 .ARM.attributes
                0x00000cd1       0x31 contiki-cc2538dk.a(rpl-dag.o)
 .ARM.attributes
                0x00000d02       0x31 contiki-cc2538dk.a(rpl-icmp6.o)
 .ARM.attributes
                0x00000d33       0x31 contiki-cc2538dk.a(rpl-timers.o)
 .ARM.attributes
                0x00000d64       0x31 contiki-cc2538dk.a(rpl-mrhof.o)
 .ARM.attributes
                0x00000d95       0x31 contiki-cc2538dk.a(rpl-ext-header.)
 .ARM.attributes
                0x00000dc6       0x31 contiki-cc2538dk.a(oled-arch.o)
 .ARM.attributes
                0x00000df7       0x31 contiki-cc2538dk.a(oled.o)
 .ARM.attributes
                0x00000e28       0x31 contiki-cc2538dk.a(stimer.o)
 .ARM.attributes
                0x00000e59       0x31 contiki-cc2538dk.a(memb.o)
 .ARM.attributes
                0x00000e8a       0x31 contiki-cc2538dk.a(frame802154.o)
 .ARM.attributes
                0x00000ebb       0x31 contiki-cc2538dk.a(aes-ccm.o)
 .ARM.attributes
                0x00000eec       0x17 /home/user/CodeSourcery/Sourcery_G++_Lite/bin/../lib/gcc/arm-none-eabi/4.3.2/thumb2/libgcc.a(_aeabi_uldivmod.o)
 .ARM.attributes
                0x00000f03       0x27 /home/user/CodeSourcery/Sourcery_G++_Lite/bin/../lib/gcc/arm-none-eabi/4.3.2/thumb2/libgcc.a(bpabi.o)
 .ARM.attributes
                0x00000f2a       0x17 /home/user/CodeSourcery/Sourcery_G++_Lite/bin/../lib/gcc/arm-none-eabi/4.3.2/thumb2/libgcc.a(_dvmd_tls.o)
 .ARM.attributes
                0x00000f41       0x27 /home/user/CodeSourcery/Sourcery_G++_Lite/bin/../lib/gcc/arm-none-eabi/4.3.2/thumb2/libgcc.a(_divdi3.o)
 .ARM.attributes
                0x00000f68       0x27 /home/user/CodeSourcery/Sourcery_G++_Lite/bin/../lib/gcc/arm-none-eabi/4.3.2/thumb2/libgcc.a(_udivdi3.o)
 .ARM.attributes
                0x00000f8f       0x17 /home/user/CodeSourcery/Sourcery_G++_Lite/bin/../lib/gcc/arm-none-eabi/4.3.2/thumb2/libgcc.a(_udivsi3.o)
 .ARM.attributes
                0x00000fa6       0x25 /home/user/CodeSourcery/Sourcery_G++_Lite/bin/../lib/gcc/arm-none-eabi/4.3.2/thumb2/libgcc.a(_clz.o)
 .ARM.attributes
                0x00000fcb       0x27 /home/user/CodeSourcery/Sourcery_G++_Lite/bin/../lib/gcc/arm-none-eabi/4.3.2/../../../../arm-none-eabi/lib/thumb2/libc.a(lib_a-memcmp.o)
 .ARM.attributes
                0x00000ff2       0x27 /home/user/CodeSourcery/Sourcery_G++_Lite/bin/../lib/gcc/arm-none-eabi/4.3.2/../../../../arm-none-eabi/lib/thumb2/libc.a(lib_a-memcpy.o)
 .ARM.attributes
                0x00001019       0x27 /home/user/CodeSourcery/Sourcery_G++_Lite/bin/../lib/gcc/arm-none-eabi/4.3.2/../../../../arm-none-eabi/lib/thumb2/libc.a(lib_a-memmove.o)
 .ARM.attributes
                0x00001040       0x27 /home/user/CodeSourcery/Sourcery_G++_Lite/bin/../lib/gcc/arm-none-eabi/4.3.2/../../../../arm-none-eabi/lib/thumb2/libc.a(lib_a-memset.o)
 .ARM.attributes
                0x00001067       0x27 /home/user/CodeSourcery/Sourcery_G++_Lite/bin/../lib/gcc/arm-none-eabi/4.3.2/../../../../arm-none-eabi/lib/thumb2/libc.a(lib_a-strlen.o)
 .ARM.attributes
                0x0000108e       0x27 /home/user/CodeSourcery/Sourcery_G++_Lite/bin/../lib/gcc/arm-none-eabi/4.3.2/../../../../arm-none-eabi/lib/thumb2/libc.a(lib_a-strncasecmp.o)
 .ARM.attributes
                0x000010b5       0x27 /home/user/CodeSourcery/Sourcery_G++_Lite/bin/../lib/gcc/arm-none-eabi/4.3.2/../../../../arm-none-eabi/lib/thumb2/libc.a(lib_a-strncmp.o)
 .ARM.attributes
                0x000010dc       0x25 /home/user/CodeSourcery/Sourcery_G++_Lite/bin/../lib/gcc/arm-none-eabi/4.3.2/../../../../arm-none-eabi/lib/thumb2/libc.a(lib_a-ctype_.o)

.debug_frame    0x00000000      0x20c
 .debug_frame   0x00000000       0x50 /home/user/CodeSourcery/Sourcery_G++_Lite/bin/../lib/gcc/arm-none-eabi/4.3.2/thumb2/libgcc.a(bpabi.o)
 .debug_frame   0x00000050       0x38 /home/user/CodeSourcery/Sourcery_G++_Lite/bin/../lib/gcc/arm-none-eabi/4.3.2/thumb2/libgcc.a(_divdi3.o)
 .debug_frame   0x00000088       0x38 /home/user/CodeSourcery/Sourcery_G++_Lite/bin/../lib/gcc/arm-none-eabi/4.3.2/thumb2/libgcc.a(_udivdi3.o)
 .debug_frame   0x000000c0       0x20 /home/user/CodeSourcery/Sourcery_G++_Lite/bin/../lib/gcc/arm-none-eabi/4.3.2/thumb2/libgcc.a(_udivsi3.o)
 .debug_frame   0x000000e0       0x2c /home/user/CodeSourcery/Sourcery_G++_Lite/bin/../lib/gcc/arm-none-eabi/4.3.2/../../../../arm-none-eabi/lib/thumb2/libc.a(lib_a-memcmp.o)
 .debug_frame   0x0000010c       0x2c /home/user/CodeSourcery/Sourcery_G++_Lite/bin/../lib/gcc/arm-none-eabi/4.3.2/../../../../arm-none-eabi/lib/thumb2/libc.a(lib_a-memcpy.o)
 .debug_frame   0x00000138       0x2c /home/user/CodeSourcery/Sourcery_G++_Lite/bin/../lib/gcc/arm-none-eabi/4.3.2/../../../../arm-none-eabi/lib/thumb2/libc.a(lib_a-memmove.o)
 .debug_frame   0x00000164       0x28 /home/user/CodeSourcery/Sourcery_G++_Lite/bin/../lib/gcc/arm-none-eabi/4.3.2/../../../../arm-none-eabi/lib/thumb2/libc.a(lib_a-memset.o)
 .debug_frame   0x0000018c       0x20 /home/user/CodeSourcery/Sourcery_G++_Lite/bin/../lib/gcc/arm-none-eabi/4.3.2/../../../../arm-none-eabi/lib/thumb2/libc.a(lib_a-strlen.o)
 .debug_frame   0x000001ac       0x34 /home/user/CodeSourcery/Sourcery_G++_Lite/bin/../lib/gcc/arm-none-eabi/4.3.2/../../../../arm-none-eabi/lib/thumb2/libc.a(lib_a-strncasecmp.o)
 .debug_frame   0x000001e0       0x2c /home/user/CodeSourcery/Sourcery_G++_Lite/bin/../lib/gcc/arm-none-eabi/4.3.2/../../../../arm-none-eabi/lib/thumb2/libc.a(lib_a-strncmp.o)

Cross Reference Table

Symbol                                            File
ALL_L                                             mqtt-demo.co
OLED_Display_Off                                  contiki-cc2538dk.a(oled-arch.o)
OLED_Display_Off1                                 contiki-cc2538dk.a(oled.o)
OLED_Display_On                                   contiki-cc2538dk.a(oled-arch.o)
OLED_Display_On1                                  contiki-cc2538dk.a(oled.o)
OLED_Fill                                         contiki-cc2538dk.a(oled-arch.o)
OLED_Fill1                                        contiki-cc2538dk.a(oled.o)
OLED_Init                                         contiki-cc2538dk.a(oled-arch.o)
                                                  contiki-cc2538dk.a(contiki-main.o)
OLED_Init1                                        contiki-cc2538dk.a(oled.o)
                                                  contiki-cc2538dk.a(contiki-main.o)
OLED_P6x8Str                                      contiki-cc2538dk.a(oled.o)
OLED_P8x16Str                                     contiki-cc2538dk.a(oled.o)
OLED_Setpos                                       contiki-cc2538dk.a(oled-arch.o)
OLED_Setpos1                                      contiki-cc2538dk.a(oled.o)
OLED_WrCmd                                        contiki-cc2538dk.a(oled-arch.o)
OLED_WrCmd1                                       contiki-cc2538dk.a(oled.o)
OLED_WrDat                                        contiki-cc2538dk.a(oled-arch.o)
OLED_WrDat1                                       contiki-cc2538dk.a(oled.o)
Pa_value                                          mqtt-demo.co
RS485_Rece                                        mqtt-demo.co
Temp                                              mqtt-demo.co
__aeabi_idiv0                                     /home/user/CodeSourcery/Sourcery_G++_Lite/bin/../lib/gcc/arm-none-eabi/4.3.2/thumb2/libgcc.a(_dvmd_tls.o)
                                                  /home/user/CodeSourcery/Sourcery_G++_Lite/bin/../lib/gcc/arm-none-eabi/4.3.2/thumb2/libgcc.a(_udivsi3.o)
__aeabi_ldiv0                                     /home/user/CodeSourcery/Sourcery_G++_Lite/bin/../lib/gcc/arm-none-eabi/4.3.2/thumb2/libgcc.a(_dvmd_tls.o)
                                                  /home/user/CodeSourcery/Sourcery_G++_Lite/bin/../lib/gcc/arm-none-eabi/4.3.2/thumb2/libgcc.a(_aeabi_uldivmod.o)
__aeabi_uidiv                                     /home/user/CodeSourcery/Sourcery_G++_Lite/bin/../lib/gcc/arm-none-eabi/4.3.2/thumb2/libgcc.a(_udivsi3.o)
                                                  /home/user/CodeSourcery/Sourcery_G++_Lite/bin/../lib/gcc/arm-none-eabi/4.3.2/thumb2/libgcc.a(_udivdi3.o)
                                                  /home/user/CodeSourcery/Sourcery_G++_Lite/bin/../lib/gcc/arm-none-eabi/4.3.2/thumb2/libgcc.a(_divdi3.o)
__aeabi_uidivmod                                  /home/user/CodeSourcery/Sourcery_G++_Lite/bin/../lib/gcc/arm-none-eabi/4.3.2/thumb2/libgcc.a(_udivsi3.o)
                                                  /home/user/CodeSourcery/Sourcery_G++_Lite/bin/../lib/gcc/arm-none-eabi/4.3.2/thumb2/libgcc.a(_udivdi3.o)
                                                  /home/user/CodeSourcery/Sourcery_G++_Lite/bin/../lib/gcc/arm-none-eabi/4.3.2/thumb2/libgcc.a(_divdi3.o)
__aeabi_uldivmod                                  /home/user/CodeSourcery/Sourcery_G++_Lite/bin/../lib/gcc/arm-none-eabi/4.3.2/thumb2/libgcc.a(_aeabi_uldivmod.o)
                                                  contiki-cc2538dk.a(strformat.o)
__cca                                             obj_cc2538dk/startup-gcc.o
__clz_tab                                         /home/user/CodeSourcery/Sourcery_G++_Lite/bin/../lib/gcc/arm-none-eabi/4.3.2/thumb2/libgcc.a(_clz.o)
                                                  /home/user/CodeSourcery/Sourcery_G++_Lite/bin/../lib/gcc/arm-none-eabi/4.3.2/thumb2/libgcc.a(_udivdi3.o)
                                                  /home/user/CodeSourcery/Sourcery_G++_Lite/bin/../lib/gcc/arm-none-eabi/4.3.2/thumb2/libgcc.a(_divdi3.o)
__ctype_ptr                                       /home/user/CodeSourcery/Sourcery_G++_Lite/bin/../lib/gcc/arm-none-eabi/4.3.2/../../../../arm-none-eabi/lib/thumb2/libc.a(lib_a-ctype_.o)
__ctype_ptr__                                     /home/user/CodeSourcery/Sourcery_G++_Lite/bin/../lib/gcc/arm-none-eabi/4.3.2/../../../../arm-none-eabi/lib/thumb2/libc.a(lib_a-ctype_.o)
                                                  /home/user/CodeSourcery/Sourcery_G++_Lite/bin/../lib/gcc/arm-none-eabi/4.3.2/../../../../arm-none-eabi/lib/thumb2/libc.a(lib_a-strncasecmp.o)
__divdi3                                          /home/user/CodeSourcery/Sourcery_G++_Lite/bin/../lib/gcc/arm-none-eabi/4.3.2/thumb2/libgcc.a(_divdi3.o)
                                                  /home/user/CodeSourcery/Sourcery_G++_Lite/bin/../lib/gcc/arm-none-eabi/4.3.2/thumb2/libgcc.a(bpabi.o)
__gnu_ldivmod_helper                              /home/user/CodeSourcery/Sourcery_G++_Lite/bin/../lib/gcc/arm-none-eabi/4.3.2/thumb2/libgcc.a(bpabi.o)
__gnu_uldivmod_helper                             /home/user/CodeSourcery/Sourcery_G++_Lite/bin/../lib/gcc/arm-none-eabi/4.3.2/thumb2/libgcc.a(bpabi.o)
                                                  /home/user/CodeSourcery/Sourcery_G++_Lite/bin/../lib/gcc/arm-none-eabi/4.3.2/thumb2/libgcc.a(_aeabi_uldivmod.o)
__udivdi3                                         /home/user/CodeSourcery/Sourcery_G++_Lite/bin/../lib/gcc/arm-none-eabi/4.3.2/thumb2/libgcc.a(_udivdi3.o)
                                                  /home/user/CodeSourcery/Sourcery_G++_Lite/bin/../lib/gcc/arm-none-eabi/4.3.2/thumb2/libgcc.a(bpabi.o)
__udivsi3                                         /home/user/CodeSourcery/Sourcery_G++_Lite/bin/../lib/gcc/arm-none-eabi/4.3.2/thumb2/libgcc.a(_udivsi3.o)
_bss                                              obj_cc2538dk/startup-gcc.o
_ctype_                                           /home/user/CodeSourcery/Sourcery_G++_Lite/bin/../lib/gcc/arm-none-eabi/4.3.2/../../../../arm-none-eabi/lib/thumb2/libc.a(lib_a-ctype_.o)
_data                                             obj_cc2538dk/startup-gcc.o
_ebss                                             obj_cc2538dk/startup-gcc.o
_edata                                            obj_cc2538dk/startup-gcc.o
_ldata                                            obj_cc2538dk/startup-gcc.o
_text                                             obj_cc2538dk/startup-gcc.o
adc_get                                           contiki-cc2538dk.a(adc.o)
                                                  contiki-cc2538dk.a(vdd3-sensor.o)
                                                  contiki-cc2538dk.a(cc2538-temp-sen)
                                                  contiki-cc2538dk.a(als-sensor.o)
                                                  mqtt-demo.co
adc_init                                          contiki-cc2538dk.a(adc.o)
                                                  contiki-cc2538dk.a(contiki-main.o)
aes_ccm_decrypt                                   contiki-cc2538dk.a(aes-ccm.o)
                                                  contiki-cc2538dk.a(netstack-aes.o)
aes_ccm_encrypt                                   contiki-cc2538dk.a(aes-ccm.o)
                                                  contiki-cc2538dk.a(netstack-aes.o)
aes_ccm_verify                                    contiki-cc2538dk.a(aes-ccm.o)
                                                  contiki-cc2538dk.a(netstack-aes.o)
aes_encrypt                                       contiki-cc2538dk.a(aes-ccm.o)
als_sensor                                        contiki-cc2538dk.a(als-sensor.o)
                                                  contiki-cc2538dk.a(smartrf-sensors)
autostart_exit                                    contiki-cc2538dk.a(autostart.o)
autostart_processes                               mqtt-demo.co
                                                  contiki-cc2538dk.a(contiki-main.o)
autostart_start                                   contiki-cc2538dk.a(autostart.o)
                                                  contiki-cc2538dk.a(contiki-main.o)
button_down_sensor                                contiki-cc2538dk.a(button-sensor.o)
                                                  contiki-cc2538dk.a(smartrf-sensors)
button_left_sensor                                contiki-cc2538dk.a(button-sensor.o)
                                                  contiki-cc2538dk.a(smartrf-sensors)
button_right_sensor                               contiki-cc2538dk.a(button-sensor.o)
                                                  contiki-cc2538dk.a(smartrf-sensors)
button_select_sensor                              contiki-cc2538dk.a(button-sensor.o)
                                                  contiki-cc2538dk.a(smartrf-sensors)
                                                  mqtt-demo.co
button_sensor_init                                contiki-cc2538dk.a(button-sensor.o)
                                                  contiki-cc2538dk.a(contiki-main.o)
button_up_sensor                                  contiki-cc2538dk.a(button-sensor.o)
                                                  contiki-cc2538dk.a(smartrf-sensors)
cc2538_demo_process                               mqtt-demo.co
cc2538_rf_driver                                  contiki-cc2538dk.a(cc2538-rf.o)
                                                  contiki-cc2538dk.a(contikimac.o)
                                                  contiki-cc2538dk.a(netstack.o)
                                                  contiki-cc2538dk.a(contiki-main.o)
cc2538_rf_err_isr                                 contiki-cc2538dk.a(cc2538-rf.o)
                                                  obj_cc2538dk/startup-gcc.o
cc2538_rf_process                                 contiki-cc2538dk.a(cc2538-rf.o)
cc2538_rf_rx_tx_isr                               contiki-cc2538dk.a(cc2538-rf.o)
                                                  obj_cc2538dk/startup-gcc.o
cc2538_rf_set_promiscous_mode                     contiki-cc2538dk.a(cc2538-rf.o)
cc2538_temp_sensor                                contiki-cc2538dk.a(cc2538-temp-sen)
                                                  contiki-cc2538dk.a(smartrf-sensors)
clock_adjust                                      contiki-cc2538dk.a(clock.o)
                                                  contiki-cc2538dk.a(lpm.o)
clock_delay                                       contiki-cc2538dk.a(clock.o)
                                                  contiki-cc2538dk.a(leds.o)
clock_delay_usec                                  contiki-cc2538dk.a(clock.o)
                                                  contiki-cc2538dk.a(oled.o)
                                                  contiki-cc2538dk.a(oled-arch.o)
                                                  contiki-cc2538dk.a(cc2538-rf.o)
                                                  contiki-cc2538dk.a(als-sensor.o)
clock_init                                        contiki-cc2538dk.a(clock.o)
                                                  contiki-cc2538dk.a(contiki-main.o)
clock_isr                                         contiki-cc2538dk.a(clock.o)
                                                  obj_cc2538dk/startup-gcc.o
clock_seconds                                     contiki-cc2538dk.a(clock.o)
                                                  contiki-cc2538dk.a(stimer.o)
clock_set_seconds                                 contiki-cc2538dk.a(clock.o)
clock_time                                        contiki-cc2538dk.a(clock.o)
                                                  contiki-cc2538dk.a(rpl-timers.o)
                                                  contiki-cc2538dk.a(rpl-dag.o)
                                                  contiki-cc2538dk.a(rpl.o)
                                                  contiki-cc2538dk.a(timer.o)
                                                  contiki-cc2538dk.a(etimer.o)
clock_wait                                        contiki-cc2538dk.a(clock.o)
contikimac_debug_print                            contiki-cc2538dk.a(contikimac.o)
contikimac_driver                                 contiki-cc2538dk.a(contikimac.o)
                                                  contiki-cc2538dk.a(csma.o)
                                                  contiki-cc2538dk.a(netstack.o)
                                                  contiki-cc2538dk.a(cc2538-rf.o)
                                                  contiki-cc2538dk.a(contiki-main.o)
cpu_cpsid                                         contiki-cc2538dk.a(cpu.o)
                                                  contiki-cc2538dk.a(watchdog.o)
                                                  contiki-cc2538dk.a(rtimer-arch.o)
cpu_cpsie                                         contiki-cc2538dk.a(cpu.o)
                                                  contiki-cc2538dk.a(rtimer-arch.o)
                                                  contiki-cc2538dk.a(contiki-main.o)
crypto_disable                                    contiki-cc2538dk.a(crypto.o)
crypto_enable                                     contiki-cc2538dk.a(crypto.o)
crypto_init                                       contiki-cc2538dk.a(crypto.o)
crypto_isr                                        contiki-cc2538dk.a(crypto.o)
                                                  obj_cc2538dk/startup-gcc.o
crypto_register_process_notification              contiki-cc2538dk.a(crypto.o)
csma_driver                                       contiki-cc2538dk.a(csma.o)
                                                  contiki-cc2538dk.a(nullsec.o)
                                                  contiki-cc2538dk.a(contikimac.o)
                                                  contiki-cc2538dk.a(netstack.o)
                                                  contiki-cc2538dk.a(contiki-main.o)
ctimer_expired                                    contiki-cc2538dk.a(ctimer.o)
ctimer_init                                       contiki-cc2538dk.a(ctimer.o)
                                                  contiki-cc2538dk.a(contiki-main.o)
ctimer_process                                    contiki-cc2538dk.a(ctimer.o)
ctimer_reset                                      contiki-cc2538dk.a(ctimer.o)
                                                  contiki-cc2538dk.a(rpl-timers.o)
ctimer_restart                                    contiki-cc2538dk.a(ctimer.o)
                                                  contiki-cc2538dk.a(mqtt.o)
ctimer_set                                        contiki-cc2538dk.a(ctimer.o)
                                                  contiki-cc2538dk.a(rpl-timers.o)
                                                  contiki-cc2538dk.a(csma.o)
                                                  contiki-cc2538dk.a(contikimac.o)
                                                  contiki-cc2538dk.a(mqtt.o)
                                                  mqtt-demo.co
ctimer_stop                                       contiki-cc2538dk.a(ctimer.o)
                                                  contiki-cc2538dk.a(rpl-timers.o)
                                                  contiki-cc2538dk.a(rpl-dag.o)
                                                  contiki-cc2538dk.a(csma.o)
                                                  contiki-cc2538dk.a(contikimac.o)
                                                  contiki-cc2538dk.a(mqtt.o)
dao_ack_output                                    contiki-cc2538dk.a(rpl-icmp6.o)
dao_output                                        contiki-cc2538dk.a(rpl-icmp6.o)
                                                  contiki-cc2538dk.a(rpl-timers.o)
                                                  contiki-cc2538dk.a(rpl-dag.o)
dao_output_target                                 contiki-cc2538dk.a(rpl-icmp6.o)
                                                  contiki-cc2538dk.a(rpl-ext-header.)
                                                  contiki-cc2538dk.a(rpl.o)
dbg_send_bytes                                    contiki-cc2538dk.a(dbg.o)
                                                  contiki-cc2538dk.a(dbg-printf.o)
default_handler                                   obj_cc2538dk/startup-gcc.o
default_instance                                  contiki-cc2538dk.a(rpl-ext-header.)
                                                  contiki-cc2538dk.a(rpl-dag.o)
                                                  contiki-cc2538dk.a(rpl.o)
dio_output                                        contiki-cc2538dk.a(rpl-icmp6.o)
                                                  contiki-cc2538dk.a(rpl-timers.o)
dis_output                                        contiki-cc2538dk.a(rpl-icmp6.o)
                                                  contiki-cc2538dk.a(rpl-timers.o)
ds6_neighbors                                     contiki-cc2538dk.a(uip-ds6-nbr.o)
                                                  contiki-cc2538dk.a(rpl-dag.o)
energest_flush                                    contiki-cc2538dk.a(energest.o)
energest_init                                     contiki-cc2538dk.a(energest.o)
                                                  contiki-cc2538dk.a(contiki-main.o)
energest_type_set                                 contiki-cc2538dk.a(energest.o)
energest_type_time                                contiki-cc2538dk.a(energest.o)
etimer_adjust                                     contiki-cc2538dk.a(etimer.o)
etimer_expiration_time                            contiki-cc2538dk.a(etimer.o)
                                                  contiki-cc2538dk.a(rpl-timers.o)
etimer_expired                                    contiki-cc2538dk.a(etimer.o)
                                                  contiki-cc2538dk.a(rpl-timers.o)
                                                  contiki-cc2538dk.a(tcpip.o)
                                                  contiki-cc2538dk.a(ctimer.o)
                                                  mqtt-demo.co
etimer_next_expiration_time                       contiki-cc2538dk.a(etimer.o)
etimer_pending                                    contiki-cc2538dk.a(etimer.o)
                                                  contiki-cc2538dk.a(clock.o)
etimer_process                                    contiki-cc2538dk.a(etimer.o)
                                                  contiki-cc2538dk.a(contiki-main.o)
etimer_request_poll                               contiki-cc2538dk.a(etimer.o)
                                                  contiki-cc2538dk.a(clock.o)
etimer_reset                                      contiki-cc2538dk.a(etimer.o)
                                                  contiki-cc2538dk.a(uip-ds6.o)
                                                  contiki-cc2538dk.a(ctimer.o)
                                                  mqtt-demo.co
etimer_restart                                    contiki-cc2538dk.a(etimer.o)
                                                  contiki-cc2538dk.a(tcpip.o)
                                                  contiki-cc2538dk.a(ctimer.o)
etimer_set                                        contiki-cc2538dk.a(etimer.o)
                                                  contiki-cc2538dk.a(tcpip.o)
                                                  contiki-cc2538dk.a(uip-ds6.o)
                                                  contiki-cc2538dk.a(ctimer.o)
                                                  mqtt-demo.co
etimer_start_time                                 contiki-cc2538dk.a(etimer.o)
etimer_stop                                       contiki-cc2538dk.a(etimer.o)
                                                  contiki-cc2538dk.a(ctimer.o)
format_str                                        contiki-cc2538dk.a(strformat.o)
format_str_v                                      contiki-cc2538dk.a(strformat.o)
                                                  contiki-cc2538dk.a(dbg-snprintf.o)
                                                  contiki-cc2538dk.a(dbg-printf.o)
frag_sender                                       contiki-cc2538dk.a(sicslowpan.o)
frame802154_create                                contiki-cc2538dk.a(frame802154.o)
                                                  contiki-cc2538dk.a(framer-802154.o)
frame802154_hdrlen                                contiki-cc2538dk.a(frame802154.o)
                                                  contiki-cc2538dk.a(framer-802154.o)
frame802154_parse                                 contiki-cc2538dk.a(frame802154.o)
                                                  contiki-cc2538dk.a(framer-802154.o)
framer_802154                                     contiki-cc2538dk.a(framer-802154.o)
                                                  contiki-cc2538dk.a(framer.o)
                                                  contiki-cc2538dk.a(contikimac.o)
                                                  contiki-cc2538dk.a(sicslowpan.o)
framer_canonical_create_and_secure                contiki-cc2538dk.a(framer.o)
                                                  contiki-cc2538dk.a(framer-802154.o)
get_match_length                                  contiki-cc2538dk.a(uip-ds6.o)
gpio_init                                         contiki-cc2538dk.a(gpio.o)
                                                  contiki-cc2538dk.a(contiki-main.o)
gpio_port_a_isr                                   contiki-cc2538dk.a(gpio.o)
                                                  obj_cc2538dk/startup-gcc.o
gpio_port_b_isr                                   contiki-cc2538dk.a(gpio.o)
                                                  obj_cc2538dk/startup-gcc.o
gpio_port_c_isr                                   contiki-cc2538dk.a(gpio.o)
                                                  obj_cc2538dk/startup-gcc.o
gpio_port_d_isr                                   contiki-cc2538dk.a(gpio.o)
                                                  obj_cc2538dk/startup-gcc.o
gpio_register_callback                            contiki-cc2538dk.a(gpio.o)
                                                  contiki-cc2538dk.a(button-sensor.o)
icmp6_new                                         contiki-cc2538dk.a(tcpip.o)
ieee_addr_cpy_to                                  contiki-cc2538dk.a(ieee-addr.o)
                                                  contiki-cc2538dk.a(contiki-main.o)
instance_table                                    contiki-cc2538dk.a(rpl-icmp6.o)
                                                  contiki-cc2538dk.a(rpl-dag.o)
                                                  contiki-cc2538dk.a(rpl.o)
ioc_init                                          contiki-cc2538dk.a(ioc.o)
                                                  contiki-cc2538dk.a(contiki-main.o)
ioc_set_over                                      contiki-cc2538dk.a(ioc.o)
                                                  contiki-cc2538dk.a(uart.o)
                                                  contiki-cc2538dk.a(als-sensor.o)
                                                  contiki-cc2538dk.a(button-sensor.o)
ioc_set_sel                                       contiki-cc2538dk.a(ioc.o)
                                                  contiki-cc2538dk.a(uart.o)
ipaddr_sprintf                                    mqtt-demo.co
leds_arch_get                                     contiki-cc2538dk.a(leds-arch.o)
                                                  contiki-cc2538dk.a(leds.o)
leds_arch_init                                    contiki-cc2538dk.a(leds-arch.o)
                                                  contiki-cc2538dk.a(leds.o)
leds_arch_set                                     contiki-cc2538dk.a(leds-arch.o)
                                                  contiki-cc2538dk.a(leds.o)
leds_blink                                        contiki-cc2538dk.a(leds.o)
leds_get                                          contiki-cc2538dk.a(leds.o)
leds_init                                         contiki-cc2538dk.a(leds.o)
                                                  contiki-cc2538dk.a(contiki-main.o)
leds_off                                          contiki-cc2538dk.a(leds.o)
                                                  contiki-cc2538dk.a(contiki-main.o)
                                                  mqtt-demo.co
leds_on                                           contiki-cc2538dk.a(leds.o)
                                                  contiki-cc2538dk.a(contiki-main.o)
                                                  mqtt-demo.co
leds_set                                          contiki-cc2538dk.a(leds.o)
leds_toggle                                       contiki-cc2538dk.a(leds.o)
linkaddr_cmp                                      contiki-cc2538dk.a(linkaddr.o)
                                                  contiki-cc2538dk.a(mac-sequence.o)
                                                  contiki-cc2538dk.a(csma.o)
                                                  contiki-cc2538dk.a(contikimac.o)
                                                  contiki-cc2538dk.a(packetbuf.o)
                                                  contiki-cc2538dk.a(nbr-table.o)
                                                  contiki-cc2538dk.a(uip-ds6-nbr.o)
                                                  contiki-cc2538dk.a(sicslowpan.o)
linkaddr_copy                                     contiki-cc2538dk.a(linkaddr.o)
                                                  contiki-cc2538dk.a(frame802154.o)
                                                  contiki-cc2538dk.a(mac-sequence.o)
                                                  contiki-cc2538dk.a(framer-802154.o)
                                                  contiki-cc2538dk.a(csma.o)
                                                  contiki-cc2538dk.a(packetbuf.o)
                                                  contiki-cc2538dk.a(nbr-table.o)
                                                  contiki-cc2538dk.a(sicslowpan.o)
linkaddr_node_addr                                contiki-cc2538dk.a(framer-802154.o)
                                                  contiki-cc2538dk.a(contikimac.o)
                                                  contiki-cc2538dk.a(linkaddr.o)
                                                  contiki-cc2538dk.a(contiki-main.o)
                                                  mqtt-demo.co
linkaddr_null                                     contiki-cc2538dk.a(linkaddr.o)
                                                  contiki-cc2538dk.a(frame802154.o)
                                                  contiki-cc2538dk.a(packetbuf.o)
                                                  contiki-cc2538dk.a(nbr-table.o)
                                                  contiki-cc2538dk.a(uip-ds6-nbr.o)
                                                  contiki-cc2538dk.a(sicslowpan.o)
linkaddr_set_node_addr                            contiki-cc2538dk.a(linkaddr.o)
list_add                                          contiki-cc2538dk.a(list.o)
                                                  contiki-cc2538dk.a(csma.o)
                                                  contiki-cc2538dk.a(nbr-table.o)
                                                  contiki-cc2538dk.a(tcp-socket.o)
                                                  contiki-cc2538dk.a(uip-icmp6.o)
                                                  contiki-cc2538dk.a(uip-ds6-route.o)
                                                  contiki-cc2538dk.a(ctimer.o)
                                                  contiki-cc2538dk.a(mqtt.o)
list_chop                                         contiki-cc2538dk.a(list.o)
list_copy                                         contiki-cc2538dk.a(list.o)
list_head                                         contiki-cc2538dk.a(list.o)
                                                  contiki-cc2538dk.a(csma.o)
                                                  contiki-cc2538dk.a(nbr-table.o)
                                                  contiki-cc2538dk.a(tcp-socket.o)
                                                  contiki-cc2538dk.a(uip-icmp6.o)
                                                  contiki-cc2538dk.a(uip-ds6-route.o)
                                                  contiki-cc2538dk.a(ctimer.o)
list_init                                         contiki-cc2538dk.a(list.o)
                                                  contiki-cc2538dk.a(csma.o)
                                                  contiki-cc2538dk.a(tcp-socket.o)
                                                  contiki-cc2538dk.a(uip-ds6-route.o)
                                                  contiki-cc2538dk.a(ctimer.o)
                                                  contiki-cc2538dk.a(mqtt.o)
list_insert                                       contiki-cc2538dk.a(list.o)
list_item_next                                    contiki-cc2538dk.a(list.o)
                                                  contiki-cc2538dk.a(csma.o)
                                                  contiki-cc2538dk.a(contikimac.o)
                                                  contiki-cc2538dk.a(nbr-table.o)
                                                  contiki-cc2538dk.a(tcp-socket.o)
                                                  contiki-cc2538dk.a(uip-icmp6.o)
                                                  contiki-cc2538dk.a(uip-ds6-route.o)
list_length                                       contiki-cc2538dk.a(list.o)
                                                  contiki-cc2538dk.a(csma.o)
                                                  contiki-cc2538dk.a(uip-ds6-route.o)
list_pop                                          contiki-cc2538dk.a(list.o)
list_push                                         contiki-cc2538dk.a(list.o)
                                                  contiki-cc2538dk.a(uip-ds6-route.o)
list_remove                                       contiki-cc2538dk.a(list.o)
                                                  contiki-cc2538dk.a(csma.o)
                                                  contiki-cc2538dk.a(nbr-table.o)
                                                  contiki-cc2538dk.a(tcp-socket.o)
                                                  contiki-cc2538dk.a(uip-icmp6.o)
                                                  contiki-cc2538dk.a(uip-ds6-route.o)
                                                  contiki-cc2538dk.a(ctimer.o)
list_tail                                         contiki-cc2538dk.a(list.o)
                                                  contiki-cc2538dk.a(uip-ds6-route.o)
llprefix                                          contiki-cc2538dk.a(sicslowpan.o)
lpm_enter                                         contiki-cc2538dk.a(lpm.o)
                                                  contiki-cc2538dk.a(contiki-main.o)
lpm_exit                                          contiki-cc2538dk.a(lpm.o)
                                                  contiki-cc2538dk.a(gpio.o)
                                                  contiki-cc2538dk.a(rtimer-arch.o)
lpm_init                                          contiki-cc2538dk.a(lpm.o)
                                                  contiki-cc2538dk.a(contiki-main.o)
lpm_register_peripheral                           contiki-cc2538dk.a(lpm.o)
                                                  contiki-cc2538dk.a(crypto.o)
                                                  contiki-cc2538dk.a(uart.o)
lpm_set_max_pm                                    contiki-cc2538dk.a(lpm.o)
mac_call_sent_callback                            contiki-cc2538dk.a(mac.o)
                                                  contiki-cc2538dk.a(csma.o)
                                                  contiki-cc2538dk.a(contikimac.o)
mac_sequence_is_duplicate                         contiki-cc2538dk.a(mac-sequence.o)
                                                  contiki-cc2538dk.a(contikimac.o)
mac_sequence_register_seqno                       contiki-cc2538dk.a(mac-sequence.o)
                                                  contiki-cc2538dk.a(contikimac.o)
main                                              contiki-cc2538dk.a(contiki-main.o)
                                                  obj_cc2538dk/startup-gcc.o
memb_alloc                                        contiki-cc2538dk.a(memb.o)
                                                  contiki-cc2538dk.a(csma.o)
                                                  contiki-cc2538dk.a(queuebuf.o)
                                                  contiki-cc2538dk.a(nbr-table.o)
                                                  contiki-cc2538dk.a(uip-ds6-route.o)
memb_free                                         contiki-cc2538dk.a(memb.o)
                                                  contiki-cc2538dk.a(csma.o)
                                                  contiki-cc2538dk.a(queuebuf.o)
                                                  contiki-cc2538dk.a(uip-ds6-route.o)
memb_init                                         contiki-cc2538dk.a(memb.o)
                                                  contiki-cc2538dk.a(csma.o)
                                                  contiki-cc2538dk.a(queuebuf.o)
                                                  contiki-cc2538dk.a(uip-ds6-route.o)
memb_inmemb                                       contiki-cc2538dk.a(memb.o)
                                                  contiki-cc2538dk.a(queuebuf.o)
memb_numfree                                      contiki-cc2538dk.a(memb.o)
                                                  contiki-cc2538dk.a(queuebuf.o)
memcmp                                            /home/user/CodeSourcery/Sourcery_G++_Lite/bin/../lib/gcc/arm-none-eabi/4.3.2/../../../../arm-none-eabi/lib/thumb2/libc.a(lib_a-memcmp.o)
                                                  contiki-cc2538dk.a(rpl-icmp6.o)
                                                  contiki-cc2538dk.a(rpl-dag.o)
                                                  contiki-cc2538dk.a(rpl.o)
                                                  contiki-cc2538dk.a(linkaddr.o)
                                                  contiki-cc2538dk.a(uip-nd6.o)
                                                  contiki-cc2538dk.a(uip-ds6-route.o)
                                                  contiki-cc2538dk.a(uip-ds6-nbr.o)
                                                  contiki-cc2538dk.a(uip-ds6.o)
                                                  contiki-cc2538dk.a(uip6.o)
                                                  contiki-cc2538dk.a(sicslowpan.o)
                                                  mqtt-demo.co
memcpy                                            /home/user/CodeSourcery/Sourcery_G++_Lite/bin/../lib/gcc/arm-none-eabi/4.3.2/../../../../arm-none-eabi/lib/thumb2/libc.a(lib_a-memcpy.o)
                                                  contiki-cc2538dk.a(aes-ccm.o)
                                                  contiki-cc2538dk.a(rpl-icmp6.o)
                                                  contiki-cc2538dk.a(rpl-dag.o)
                                                  contiki-cc2538dk.a(netstack-aes.o)
                                                  contiki-cc2538dk.a(mac-sequence.o)
                                                  contiki-cc2538dk.a(packetbuf.o)
                                                  contiki-cc2538dk.a(linkaddr.o)
                                                  contiki-cc2538dk.a(tcp-socket.o)
                                                  contiki-cc2538dk.a(uip-nd6.o)
                                                  contiki-cc2538dk.a(uip-icmp6.o)
                                                  contiki-cc2538dk.a(uip-ds6-route.o)
                                                  contiki-cc2538dk.a(uip-ds6-nbr.o)
                                                  contiki-cc2538dk.a(uip-ds6.o)
                                                  contiki-cc2538dk.a(uip6.o)
                                                  contiki-cc2538dk.a(sicslowpan.o)
                                                  contiki-cc2538dk.a(dbg-snprintf.o)
                                                  contiki-cc2538dk.a(contiki-main.o)
                                                  contiki-cc2538dk.a(mqtt.o)
                                                  mqtt-demo.co
memmove                                           /home/user/CodeSourcery/Sourcery_G++_Lite/bin/../lib/gcc/arm-none-eabi/4.3.2/../../../../arm-none-eabi/lib/thumb2/libc.a(lib_a-memmove.o)
                                                  contiki-cc2538dk.a(rpl-ext-header.)
                                                  contiki-cc2538dk.a(uiplib.o)
                                                  contiki-cc2538dk.a(uip-icmp6.o)
                                                  contiki-cc2538dk.a(uip6.o)
                                                  contiki-cc2538dk.a(sicslowpan.o)
memset                                            /home/user/CodeSourcery/Sourcery_G++_Lite/bin/../lib/gcc/arm-none-eabi/4.3.2/../../../../arm-none-eabi/lib/thumb2/libc.a(lib_a-memset.o)
                                                  contiki-cc2538dk.a(aes-ccm.o)
                                                  contiki-cc2538dk.a(frame802154.o)
                                                  contiki-cc2538dk.a(memb.o)
                                                  contiki-cc2538dk.a(rpl-ext-header.)
                                                  contiki-cc2538dk.a(rpl-icmp6.o)
                                                  contiki-cc2538dk.a(rpl-dag.o)
                                                  contiki-cc2538dk.a(framer-802154.o)
                                                  contiki-cc2538dk.a(nbr-table.o)
                                                  contiki-cc2538dk.a(uiplib.o)
                                                  contiki-cc2538dk.a(uip-nd6.o)
                                                  contiki-cc2538dk.a(uip-ds6-route.o)
                                                  contiki-cc2538dk.a(uip-ds6.o)
                                                  contiki-cc2538dk.a(uip6.o)
                                                  contiki-cc2538dk.a(sicslowpan.o)
                                                  contiki-cc2538dk.a(udma.o)
                                                  contiki-cc2538dk.a(gpio.o)
                                                  contiki-cc2538dk.a(mqtt.o)
                                                  mqtt-demo.co
mqtt_connect                                      contiki-cc2538dk.a(mqtt.o)
                                                  mqtt-demo.co
mqtt_demo_process                                 mqtt-demo.co
mqtt_disconnect                                   contiki-cc2538dk.a(mqtt.o)
                                                  mqtt-demo.co
mqtt_init                                         contiki-cc2538dk.a(mqtt.o)
mqtt_process                                      contiki-cc2538dk.a(mqtt.o)
mqtt_publish                                      contiki-cc2538dk.a(mqtt.o)
                                                  mqtt-demo.co
mqtt_register                                     contiki-cc2538dk.a(mqtt.o)
                                                  mqtt-demo.co
mqtt_set_last_will                                contiki-cc2538dk.a(mqtt.o)
mqtt_set_username_password                        contiki-cc2538dk.a(mqtt.o)
                                                  mqtt-demo.co
mqtt_subscribe                                    contiki-cc2538dk.a(mqtt.o)
                                                  mqtt-demo.co
mqtt_unsubscribe                                  contiki-cc2538dk.a(mqtt.o)
mqtt_update_event                                 contiki-cc2538dk.a(mqtt.o)
nbr_table_add_lladdr                              contiki-cc2538dk.a(nbr-table.o)
                                                  contiki-cc2538dk.a(rpl-dag.o)
                                                  contiki-cc2538dk.a(uip-ds6-route.o)
                                                  contiki-cc2538dk.a(uip-ds6-nbr.o)
nbr_table_get_from_lladdr                         contiki-cc2538dk.a(nbr-table.o)
                                                  contiki-cc2538dk.a(rpl-dag.o)
                                                  contiki-cc2538dk.a(uip-ds6-route.o)
                                                  contiki-cc2538dk.a(uip-ds6-nbr.o)
nbr_table_get_lladdr                              contiki-cc2538dk.a(nbr-table.o)
                                                  contiki-cc2538dk.a(rpl-dag.o)
                                                  contiki-cc2538dk.a(uip-ds6-route.o)
                                                  contiki-cc2538dk.a(uip-ds6-nbr.o)
nbr_table_head                                    contiki-cc2538dk.a(nbr-table.o)
                                                  contiki-cc2538dk.a(rpl-timers.o)
                                                  contiki-cc2538dk.a(rpl-dag.o)
                                                  contiki-cc2538dk.a(uip-ds6-nbr.o)
nbr_table_lock                                    contiki-cc2538dk.a(nbr-table.o)
                                                  contiki-cc2538dk.a(rpl-dag.o)
nbr_table_next                                    contiki-cc2538dk.a(nbr-table.o)
                                                  contiki-cc2538dk.a(rpl-timers.o)
                                                  contiki-cc2538dk.a(rpl-dag.o)
                                                  contiki-cc2538dk.a(uip-ds6-nbr.o)
nbr_table_register                                contiki-cc2538dk.a(nbr-table.o)
                                                  contiki-cc2538dk.a(rpl-dag.o)
                                                  contiki-cc2538dk.a(uip-ds6-route.o)
                                                  contiki-cc2538dk.a(uip-ds6-nbr.o)
nbr_table_remove                                  contiki-cc2538dk.a(nbr-table.o)
                                                  contiki-cc2538dk.a(rpl-dag.o)
                                                  contiki-cc2538dk.a(uip-ds6-route.o)
                                                  contiki-cc2538dk.a(uip-ds6-nbr.o)
nbr_table_unlock                                  contiki-cc2538dk.a(nbr-table.o)
                                                  contiki-cc2538dk.a(rpl-dag.o)
netstack_aes_decrypt                              contiki-cc2538dk.a(netstack-aes.o)
netstack_aes_encrypt                              contiki-cc2538dk.a(netstack-aes.o)
netstack_aes_init                                 contiki-cc2538dk.a(netstack-aes.o)
netstack_aes_set_active                           contiki-cc2538dk.a(netstack-aes.o)
netstack_aes_set_key                              contiki-cc2538dk.a(netstack-aes.o)
                                                  contiki-cc2538dk.a(contiki-main.o)
netstack_aes_set_master_key                       contiki-cc2538dk.a(netstack-aes.o)
netstack_aes_verify                               contiki-cc2538dk.a(netstack-aes.o)
netstack_init                                     contiki-cc2538dk.a(netstack.o)
                                                  contiki-cc2538dk.a(contiki-main.o)
nmi_handler                                       obj_cc2538dk/startup-gcc.o
notify                                            contiki-cc2538dk.a(gpio.o)
nullsec_driver                                    contiki-cc2538dk.a(nullsec.o)
                                                  contiki-cc2538dk.a(framer.o)
                                                  contiki-cc2538dk.a(csma.o)
                                                  contiki-cc2538dk.a(sicslowpan.o)
nvic_init                                         contiki-cc2538dk.a(nvic.o)
                                                  contiki-cc2538dk.a(contiki-main.o)
nvic_interrupt_disable                            contiki-cc2538dk.a(nvic.o)
                                                  contiki-cc2538dk.a(crypto.o)
                                                  contiki-cc2538dk.a(rtimer-arch.o)
nvic_interrupt_en_restore                         contiki-cc2538dk.a(nvic.o)
nvic_interrupt_en_save                            contiki-cc2538dk.a(nvic.o)
nvic_interrupt_enable                             contiki-cc2538dk.a(nvic.o)
                                                  contiki-cc2538dk.a(udma.o)
                                                  contiki-cc2538dk.a(cc2538-rf.o)
                                                  contiki-cc2538dk.a(uart.o)
                                                  contiki-cc2538dk.a(rtimer-arch.o)
                                                  contiki-cc2538dk.a(button-sensor.o)
nvic_interrupt_pend                               contiki-cc2538dk.a(nvic.o)
nvic_interrupt_unpend                             contiki-cc2538dk.a(nvic.o)
                                                  contiki-cc2538dk.a(crypto.o)
                                                  contiki-cc2538dk.a(rtimer-arch.o)
packetbuf_addr                                    contiki-cc2538dk.a(packetbuf.o)
                                                  contiki-cc2538dk.a(rpl-ext-header.)
                                                  contiki-cc2538dk.a(rpl-icmp6.o)
                                                  contiki-cc2538dk.a(mac-sequence.o)
                                                  contiki-cc2538dk.a(framer-802154.o)
                                                  contiki-cc2538dk.a(csma.o)
                                                  contiki-cc2538dk.a(contikimac.o)
                                                  contiki-cc2538dk.a(uip-ds6-nbr.o)
                                                  contiki-cc2538dk.a(sicslowpan.o)
packetbuf_addrs                                   contiki-cc2538dk.a(packetbuf.o)
packetbuf_attr                                    contiki-cc2538dk.a(packetbuf.o)
                                                  contiki-cc2538dk.a(mac-sequence.o)
                                                  contiki-cc2538dk.a(framer-802154.o)
                                                  contiki-cc2538dk.a(csma.o)
                                                  contiki-cc2538dk.a(contikimac.o)
                                                  contiki-cc2538dk.a(sicslowpan.o)
packetbuf_attr_clear                              contiki-cc2538dk.a(packetbuf.o)
packetbuf_attr_copyfrom                           contiki-cc2538dk.a(packetbuf.o)
                                                  contiki-cc2538dk.a(netstack-aes.o)
                                                  contiki-cc2538dk.a(queuebuf.o)
packetbuf_attr_copyto                             contiki-cc2538dk.a(packetbuf.o)
                                                  contiki-cc2538dk.a(netstack-aes.o)
                                                  contiki-cc2538dk.a(queuebuf.o)
packetbuf_attrs                                   contiki-cc2538dk.a(packetbuf.o)
packetbuf_clear                                   contiki-cc2538dk.a(packetbuf.o)
                                                  contiki-cc2538dk.a(netstack-aes.o)
                                                  contiki-cc2538dk.a(sicslowpan.o)
                                                  contiki-cc2538dk.a(cc2538-rf.o)
packetbuf_clear_hdr                               contiki-cc2538dk.a(packetbuf.o)
packetbuf_compact                                 contiki-cc2538dk.a(packetbuf.o)
                                                  contiki-cc2538dk.a(netstack-aes.o)
                                                  contiki-cc2538dk.a(framer.o)
packetbuf_copyfrom                                contiki-cc2538dk.a(packetbuf.o)
                                                  contiki-cc2538dk.a(netstack-aes.o)
                                                  contiki-cc2538dk.a(queuebuf.o)
packetbuf_copyto                                  contiki-cc2538dk.a(packetbuf.o)
                                                  contiki-cc2538dk.a(queuebuf.o)
packetbuf_copyto_hdr                              contiki-cc2538dk.a(packetbuf.o)
packetbuf_datalen                                 contiki-cc2538dk.a(packetbuf.o)
                                                  contiki-cc2538dk.a(framer-802154.o)
                                                  contiki-cc2538dk.a(contikimac.o)
                                                  contiki-cc2538dk.a(sicslowpan.o)
packetbuf_dataptr                                 contiki-cc2538dk.a(packetbuf.o)
                                                  contiki-cc2538dk.a(netstack-aes.o)
                                                  contiki-cc2538dk.a(framer-802154.o)
                                                  contiki-cc2538dk.a(sicslowpan.o)
                                                  contiki-cc2538dk.a(cc2538-rf.o)
packetbuf_hdr_remove                              contiki-cc2538dk.a(packetbuf.o)
packetbuf_hdralloc                                contiki-cc2538dk.a(packetbuf.o)
                                                  contiki-cc2538dk.a(framer-802154.o)
packetbuf_hdrlen                                  contiki-cc2538dk.a(packetbuf.o)
packetbuf_hdrptr                                  contiki-cc2538dk.a(packetbuf.o)
                                                  contiki-cc2538dk.a(netstack-aes.o)
                                                  contiki-cc2538dk.a(framer-802154.o)
                                                  contiki-cc2538dk.a(contikimac.o)
packetbuf_hdrreduce                               contiki-cc2538dk.a(packetbuf.o)
                                                  contiki-cc2538dk.a(framer-802154.o)
packetbuf_holds_broadcast                         contiki-cc2538dk.a(packetbuf.o)
                                                  contiki-cc2538dk.a(framer-802154.o)
                                                  contiki-cc2538dk.a(contikimac.o)
packetbuf_set_addr                                contiki-cc2538dk.a(packetbuf.o)
                                                  contiki-cc2538dk.a(framer-802154.o)
                                                  contiki-cc2538dk.a(contikimac.o)
                                                  contiki-cc2538dk.a(sicslowpan.o)
packetbuf_set_attr                                contiki-cc2538dk.a(packetbuf.o)
                                                  contiki-cc2538dk.a(nullsec.o)
                                                  contiki-cc2538dk.a(framer-802154.o)
                                                  contiki-cc2538dk.a(csma.o)
                                                  contiki-cc2538dk.a(contikimac.o)
                                                  contiki-cc2538dk.a(sicslowpan.o)
                                                  contiki-cc2538dk.a(cc2538-rf.o)
packetbuf_set_datalen                             contiki-cc2538dk.a(packetbuf.o)
                                                  contiki-cc2538dk.a(sicslowpan.o)
                                                  contiki-cc2538dk.a(cc2538-rf.o)
packetbuf_totlen                                  contiki-cc2538dk.a(packetbuf.o)
                                                  contiki-cc2538dk.a(netstack-aes.o)
                                                  contiki-cc2538dk.a(contikimac.o)
printf                                            contiki-cc2538dk.a(dbg-printf.o)
                                                  contiki-cc2538dk.a(rpl-dag.o)
                                                  contiki-cc2538dk.a(netstack-aes.o)
                                                  contiki-cc2538dk.a(uip-debug.o)
                                                  contiki-cc2538dk.a(tcp-socket.o)
                                                  contiki-cc2538dk.a(contiki-main.o)
                                                  mqtt-demo.co
process_alloc_event                               contiki-cc2538dk.a(process.o)
                                                  contiki-cc2538dk.a(tcpip.o)
                                                  contiki-cc2538dk.a(serial-line.o)
                                                  contiki-cc2538dk.a(sensors.o)
                                                  contiki-cc2538dk.a(mqtt.o)
process_current                                   contiki-cc2538dk.a(process.o)
                                                  contiki-cc2538dk.a(tcp-socket.o)
                                                  contiki-cc2538dk.a(tcpip.o)
                                                  contiki-cc2538dk.a(serial-line.o)
                                                  contiki-cc2538dk.a(etimer.o)
                                                  contiki-cc2538dk.a(ctimer.o)
                                                  contiki-cc2538dk.a(mqtt.o)
process_exit                                      contiki-cc2538dk.a(process.o)
                                                  contiki-cc2538dk.a(autostart.o)
process_init                                      contiki-cc2538dk.a(process.o)
                                                  contiki-cc2538dk.a(contiki-main.o)
process_is_running                                contiki-cc2538dk.a(process.o)
process_list                                      contiki-cc2538dk.a(process.o)
process_nevents                                   contiki-cc2538dk.a(process.o)
                                                  contiki-cc2538dk.a(lpm.o)
process_poll                                      contiki-cc2538dk.a(process.o)
                                                  contiki-cc2538dk.a(serial-line.o)
                                                  contiki-cc2538dk.a(etimer.o)
                                                  contiki-cc2538dk.a(cc2538-rf.o)
                                                  contiki-cc2538dk.a(crypto.o)
                                                  contiki-cc2538dk.a(sensors.o)
                                                  mqtt-demo.co
process_post                                      contiki-cc2538dk.a(process.o)
                                                  contiki-cc2538dk.a(tcpip.o)
                                                  contiki-cc2538dk.a(serial-line.o)
                                                  contiki-cc2538dk.a(etimer.o)
                                                  contiki-cc2538dk.a(sensors.o)
                                                  contiki-cc2538dk.a(mqtt.o)
process_post_synch                                contiki-cc2538dk.a(process.o)
                                                  contiki-cc2538dk.a(tcpip.o)
process_run                                       contiki-cc2538dk.a(process.o)
                                                  contiki-cc2538dk.a(contiki-main.o)
process_start                                     contiki-cc2538dk.a(process.o)
                                                  contiki-cc2538dk.a(tcp-socket.o)
                                                  contiki-cc2538dk.a(serial-line.o)
                                                  contiki-cc2538dk.a(ctimer.o)
                                                  contiki-cc2538dk.a(autostart.o)
                                                  contiki-cc2538dk.a(cc2538-rf.o)
                                                  contiki-cc2538dk.a(contiki-main.o)
                                                  contiki-cc2538dk.a(mqtt.o)
putchar                                           contiki-cc2538dk.a(dbg.o)
                                                  contiki-cc2538dk.a(uip-debug.o)
puts                                              contiki-cc2538dk.a(dbg.o)
                                                  contiki-cc2538dk.a(rpl-dag.o)
                                                  contiki-cc2538dk.a(netstack-aes.o)
                                                  contiki-cc2538dk.a(contiki-main.o)
                                                  mqtt-demo.co
queuebuf_addr                                     contiki-cc2538dk.a(queuebuf.o)
queuebuf_attr                                     contiki-cc2538dk.a(queuebuf.o)
                                                  contiki-cc2538dk.a(csma.o)
queuebuf_datalen                                  contiki-cc2538dk.a(queuebuf.o)
queuebuf_dataptr                                  contiki-cc2538dk.a(queuebuf.o)
queuebuf_debug_print                              contiki-cc2538dk.a(queuebuf.o)
queuebuf_free                                     contiki-cc2538dk.a(queuebuf.o)
                                                  contiki-cc2538dk.a(csma.o)
                                                  contiki-cc2538dk.a(sicslowpan.o)
queuebuf_init                                     contiki-cc2538dk.a(queuebuf.o)
                                                  contiki-cc2538dk.a(contiki-main.o)
queuebuf_new_from_packetbuf                       contiki-cc2538dk.a(queuebuf.o)
                                                  contiki-cc2538dk.a(csma.o)
                                                  contiki-cc2538dk.a(sicslowpan.o)
queuebuf_numfree                                  contiki-cc2538dk.a(queuebuf.o)
                                                  contiki-cc2538dk.a(sicslowpan.o)
queuebuf_to_packetbuf                             contiki-cc2538dk.a(queuebuf.o)
                                                  contiki-cc2538dk.a(contikimac.o)
                                                  contiki-cc2538dk.a(sicslowpan.o)
queuebuf_update_attr_from_packetbuf               contiki-cc2538dk.a(queuebuf.o)
                                                  contiki-cc2538dk.a(csma.o)
queuebuf_update_from_packetbuf                    contiki-cc2538dk.a(queuebuf.o)
                                                  contiki-cc2538dk.a(contikimac.o)
random_init                                       contiki-cc2538dk.a(random.o)
                                                  contiki-cc2538dk.a(contiki-main.o)
random_rand                                       contiki-cc2538dk.a(random.o)
                                                  contiki-cc2538dk.a(rpl-timers.o)
                                                  contiki-cc2538dk.a(framer-802154.o)
                                                  contiki-cc2538dk.a(csma.o)
                                                  contiki-cc2538dk.a(uip-ds6.o)
remove_ext_hdr                                    contiki-cc2538dk.a(uip6.o)
res_num                                           mqtt-demo.co
reset_handler                                     obj_cc2538dk/startup-gcc.o
rime_sniffer_add                                  contiki-cc2538dk.a(sicslowpan.o)
rime_sniffer_remove                               contiki-cc2538dk.a(sicslowpan.o)
ringbuf_elements                                  contiki-cc2538dk.a(ringbuf.o)
ringbuf_get                                       contiki-cc2538dk.a(ringbuf.o)
                                                  contiki-cc2538dk.a(serial-line.o)
ringbuf_init                                      contiki-cc2538dk.a(ringbuf.o)
                                                  contiki-cc2538dk.a(serial-line.o)
ringbuf_put                                       contiki-cc2538dk.a(ringbuf.o)
                                                  contiki-cc2538dk.a(serial-line.o)
ringbuf_size                                      contiki-cc2538dk.a(ringbuf.o)
rpl_add_dag                                       contiki-cc2538dk.a(rpl-dag.o)
rpl_add_parent                                    contiki-cc2538dk.a(rpl-dag.o)
rpl_add_route                                     contiki-cc2538dk.a(rpl.o)
                                                  contiki-cc2538dk.a(rpl-icmp6.o)
rpl_alloc_dag                                     contiki-cc2538dk.a(rpl-dag.o)
rpl_alloc_instance                                contiki-cc2538dk.a(rpl-dag.o)
rpl_cancel_dao                                    contiki-cc2538dk.a(rpl-timers.o)
                                                  contiki-cc2538dk.a(rpl.o)
rpl_dag_init                                      contiki-cc2538dk.a(rpl-dag.o)
                                                  contiki-cc2538dk.a(rpl.o)
rpl_find_of                                       contiki-cc2538dk.a(rpl-dag.o)
rpl_find_parent                                   contiki-cc2538dk.a(rpl-dag.o)
                                                  contiki-cc2538dk.a(rpl-ext-header.)
                                                  contiki-cc2538dk.a(rpl-icmp6.o)
rpl_find_parent_any_dag                           contiki-cc2538dk.a(rpl-dag.o)
                                                  contiki-cc2538dk.a(rpl.o)
rpl_free_dag                                      contiki-cc2538dk.a(rpl-dag.o)
rpl_free_instance                                 contiki-cc2538dk.a(rpl-dag.o)
rpl_get_any_dag                                   contiki-cc2538dk.a(rpl-dag.o)
                                                  contiki-cc2538dk.a(rpl-timers.o)
rpl_get_default_instance                          contiki-cc2538dk.a(rpl-dag.o)
rpl_get_instance                                  contiki-cc2538dk.a(rpl-dag.o)
                                                  contiki-cc2538dk.a(rpl-ext-header.)
                                                  contiki-cc2538dk.a(rpl-icmp6.o)
rpl_get_mode                                      contiki-cc2538dk.a(rpl.o)
                                                  contiki-cc2538dk.a(rpl-timers.o)
                                                  contiki-cc2538dk.a(rpl-icmp6.o)
rpl_get_nbr                                       contiki-cc2538dk.a(rpl-dag.o)
                                                  contiki-cc2538dk.a(rpl-mrhof.o)
rpl_get_parent                                    contiki-cc2538dk.a(rpl-dag.o)
                                                  contiki-cc2538dk.a(rpl-ext-header.)
rpl_get_parent_ipaddr                             contiki-cc2538dk.a(rpl-dag.o)
                                                  contiki-cc2538dk.a(rpl-timers.o)
                                                  contiki-cc2538dk.a(rpl-icmp6.o)
rpl_get_parent_link_metric                        contiki-cc2538dk.a(rpl-dag.o)
rpl_get_parent_rank                               contiki-cc2538dk.a(rpl-dag.o)
rpl_icmp6_register_handlers                       contiki-cc2538dk.a(rpl-icmp6.o)
                                                  contiki-cc2538dk.a(rpl.o)
rpl_init                                          contiki-cc2538dk.a(rpl.o)
                                                  contiki-cc2538dk.a(tcpip.o)
rpl_insert_header                                 contiki-cc2538dk.a(rpl-ext-header.)
                                                  contiki-cc2538dk.a(uip6.o)
rpl_invert_header                                 contiki-cc2538dk.a(rpl-ext-header.)
                                                  contiki-cc2538dk.a(uip-icmp6.o)
rpl_ipv6_neighbor_callback                        contiki-cc2538dk.a(rpl.o)
                                                  contiki-cc2538dk.a(uip-ds6-nbr.o)
rpl_join_instance                                 contiki-cc2538dk.a(rpl-dag.o)
rpl_link_neighbor_callback                        contiki-cc2538dk.a(rpl.o)
                                                  contiki-cc2538dk.a(uip-ds6-nbr.o)
rpl_local_repair                                  contiki-cc2538dk.a(rpl-dag.o)
rpl_lock_parent                                   contiki-cc2538dk.a(rpl-dag.o)
                                                  contiki-cc2538dk.a(rpl-icmp6.o)
rpl_move_parent                                   contiki-cc2538dk.a(rpl-dag.o)
rpl_mrhof                                         contiki-cc2538dk.a(rpl-mrhof.o)
                                                  contiki-cc2538dk.a(rpl-icmp6.o)
                                                  contiki-cc2538dk.a(rpl-dag.o)
                                                  contiki-cc2538dk.a(rpl.o)
rpl_nullify_parent                                contiki-cc2538dk.a(rpl-dag.o)
rpl_parents                                       contiki-cc2538dk.a(rpl-dag.o)
                                                  contiki-cc2538dk.a(rpl-timers.o)
rpl_print_neighbor_list                           contiki-cc2538dk.a(rpl-dag.o)
rpl_process_dio                                   contiki-cc2538dk.a(rpl-dag.o)
                                                  contiki-cc2538dk.a(rpl-icmp6.o)
rpl_process_parent_event                          contiki-cc2538dk.a(rpl-dag.o)
rpl_purge_routes                                  contiki-cc2538dk.a(rpl.o)
                                                  contiki-cc2538dk.a(rpl-timers.o)
rpl_recalculate_ranks                             contiki-cc2538dk.a(rpl-dag.o)
                                                  contiki-cc2538dk.a(rpl-timers.o)
rpl_remove_header                                 contiki-cc2538dk.a(rpl-ext-header.)
rpl_remove_parent                                 contiki-cc2538dk.a(rpl-dag.o)
rpl_remove_routes                                 contiki-cc2538dk.a(rpl.o)
                                                  contiki-cc2538dk.a(rpl-dag.o)
rpl_remove_routes_by_nexthop                      contiki-cc2538dk.a(rpl.o)
                                                  contiki-cc2538dk.a(rpl-dag.o)
rpl_repair_root                                   contiki-cc2538dk.a(rpl-dag.o)
                                                  contiki-cc2538dk.a(tcpip.o)
rpl_reset_dio_timer                               contiki-cc2538dk.a(rpl-timers.o)
                                                  contiki-cc2538dk.a(rpl-ext-header.)
                                                  contiki-cc2538dk.a(rpl-icmp6.o)
                                                  contiki-cc2538dk.a(rpl-dag.o)
rpl_reset_periodic_timer                          contiki-cc2538dk.a(rpl-timers.o)
                                                  contiki-cc2538dk.a(rpl.o)
rpl_schedule_dao                                  contiki-cc2538dk.a(rpl-timers.o)
                                                  contiki-cc2538dk.a(rpl-dag.o)
rpl_schedule_dao_immediately                      contiki-cc2538dk.a(rpl-timers.o)
                                                  contiki-cc2538dk.a(rpl.o)
rpl_schedule_probing                              contiki-cc2538dk.a(rpl-timers.o)
                                                  contiki-cc2538dk.a(rpl-dag.o)
rpl_select_dag                                    contiki-cc2538dk.a(rpl-dag.o)
rpl_select_parent                                 contiki-cc2538dk.a(rpl-dag.o)
rpl_set_default_instance                          contiki-cc2538dk.a(rpl-dag.o)
rpl_set_default_route                             contiki-cc2538dk.a(rpl-dag.o)
rpl_set_mode                                      contiki-cc2538dk.a(rpl.o)
rpl_set_prefix                                    contiki-cc2538dk.a(rpl-dag.o)
rpl_set_root                                      contiki-cc2538dk.a(rpl-dag.o)
rpl_update_header_empty                           contiki-cc2538dk.a(rpl-ext-header.)
                                                  contiki-cc2538dk.a(uip6.o)
rpl_update_header_final                           contiki-cc2538dk.a(rpl-ext-header.)
                                                  contiki-cc2538dk.a(tcpip.o)
rpl_verify_header                                 contiki-cc2538dk.a(rpl-ext-header.)
                                                  contiki-cc2538dk.a(uip6.o)
rtimer_arch_init                                  contiki-cc2538dk.a(rtimer-arch.o)
                                                  contiki-cc2538dk.a(rtimer.o)
rtimer_arch_next_trigger                          contiki-cc2538dk.a(rtimer-arch.o)
                                                  contiki-cc2538dk.a(lpm.o)
rtimer_arch_now                                   contiki-cc2538dk.a(rtimer-arch.o)
                                                  contiki-cc2538dk.a(contikimac.o)
                                                  contiki-cc2538dk.a(lpm.o)
                                                  contiki-cc2538dk.a(cc2538-rf.o)
                                                  contiki-cc2538dk.a(clock.o)
rtimer_arch_schedule                              contiki-cc2538dk.a(rtimer-arch.o)
                                                  contiki-cc2538dk.a(rtimer.o)
rtimer_init                                       contiki-cc2538dk.a(rtimer.o)
                                                  contiki-cc2538dk.a(contiki-main.o)
rtimer_isr                                        contiki-cc2538dk.a(rtimer-arch.o)
                                                  obj_cc2538dk/startup-gcc.o
rtimer_run_next                                   contiki-cc2538dk.a(rtimer.o)
                                                  contiki-cc2538dk.a(rtimer-arch.o)
rtimer_set                                        contiki-cc2538dk.a(rtimer.o)
                                                  contiki-cc2538dk.a(contikimac.o)
sensors                                           contiki-cc2538dk.a(smartrf-sensors)
                                                  contiki-cc2538dk.a(sensors.o)
sensors_changed                                   contiki-cc2538dk.a(sensors.o)
                                                  contiki-cc2538dk.a(button-sensor.o)
sensors_event                                     contiki-cc2538dk.a(sensors.o)
                                                  mqtt-demo.co
sensors_find                                      contiki-cc2538dk.a(sensors.o)
sensors_first                                     contiki-cc2538dk.a(sensors.o)
sensors_flags                                     contiki-cc2538dk.a(smartrf-sensors)
                                                  contiki-cc2538dk.a(sensors.o)
sensors_next                                      contiki-cc2538dk.a(sensors.o)
sensors_process                                   contiki-cc2538dk.a(sensors.o)
                                                  contiki-cc2538dk.a(contiki-main.o)
serial_line_event_message                         contiki-cc2538dk.a(serial-line.o)
                                                  mqtt-demo.co
serial_line_init                                  contiki-cc2538dk.a(serial-line.o)
                                                  contiki-cc2538dk.a(contiki-main.o)
serial_line_input_byte                            contiki-cc2538dk.a(serial-line.o)
                                                  contiki-cc2538dk.a(contiki-main.o)
serial_line_process                               contiki-cc2538dk.a(serial-line.o)
sicslowpan_driver                                 contiki-cc2538dk.a(sicslowpan.o)
                                                  contiki-cc2538dk.a(nullsec.o)
                                                  contiki-cc2538dk.a(netstack.o)
                                                  contiki-cc2538dk.a(contiki-main.o)
sicslowpan_get_last_rssi                          contiki-cc2538dk.a(sicslowpan.o)
                                                  mqtt-demo.co
sicslowpan_init                                   contiki-cc2538dk.a(sicslowpan.o)
snprintf                                          contiki-cc2538dk.a(dbg-snprintf.o)
                                                  mqtt-demo.co
soil_process                                      mqtt-demo.co
status                                            mqtt-demo.co
stimer_elapsed                                    contiki-cc2538dk.a(stimer.o)
stimer_expired                                    contiki-cc2538dk.a(stimer.o)
                                                  contiki-cc2538dk.a(uip-ds6-route.o)
                                                  contiki-cc2538dk.a(uip-ds6-nbr.o)
                                                  contiki-cc2538dk.a(uip-ds6.o)
stimer_remaining                                  contiki-cc2538dk.a(stimer.o)
                                                  contiki-cc2538dk.a(uip-ds6-nbr.o)
stimer_reset                                      contiki-cc2538dk.a(stimer.o)
stimer_restart                                    contiki-cc2538dk.a(stimer.o)
stimer_set                                        contiki-cc2538dk.a(stimer.o)
                                                  contiki-cc2538dk.a(rpl-icmp6.o)
                                                  contiki-cc2538dk.a(tcpip.o)
                                                  contiki-cc2538dk.a(uip-nd6.o)
                                                  contiki-cc2538dk.a(uip-ds6-route.o)
                                                  contiki-cc2538dk.a(uip-ds6-nbr.o)
                                                  contiki-cc2538dk.a(uip-ds6.o)
strlen                                            /home/user/CodeSourcery/Sourcery_G++_Lite/bin/../lib/gcc/arm-none-eabi/4.3.2/../../../../arm-none-eabi/lib/thumb2/libc.a(lib_a-strlen.o)
                                                  contiki-cc2538dk.a(tcp-socket.o)
                                                  contiki-cc2538dk.a(sensors.o)
                                                  contiki-cc2538dk.a(mqtt.o)
                                                  mqtt-demo.co
strncasecmp                                       /home/user/CodeSourcery/Sourcery_G++_Lite/bin/../lib/gcc/arm-none-eabi/4.3.2/../../../../arm-none-eabi/lib/thumb2/libc.a(lib_a-strncasecmp.o)
                                                  mqtt-demo.co
strncmp                                           /home/user/CodeSourcery/Sourcery_G++_Lite/bin/../lib/gcc/arm-none-eabi/4.3.2/../../../../arm-none-eabi/lib/thumb2/libc.a(lib_a-strncmp.o)
                                                  contiki-cc2538dk.a(sensors.o)
                                                  mqtt-demo.co
sys_ctrl_get_io_clock                             contiki-cc2538dk.a(sys-ctrl.o)
sys_ctrl_get_sys_clock                            contiki-cc2538dk.a(sys-ctrl.o)
sys_ctrl_init                                     contiki-cc2538dk.a(sys-ctrl.o)
                                                  contiki-cc2538dk.a(contiki-main.o)
sys_ctrl_reset                                    contiki-cc2538dk.a(sys-ctrl.o)
tcp_attach                                        contiki-cc2538dk.a(tcpip.o)
                                                  contiki-cc2538dk.a(tcp-socket.o)
tcp_connect                                       contiki-cc2538dk.a(tcpip.o)
                                                  contiki-cc2538dk.a(tcp-socket.o)
tcp_listen                                        contiki-cc2538dk.a(tcpip.o)
                                                  contiki-cc2538dk.a(tcp-socket.o)
tcp_socket_close                                  contiki-cc2538dk.a(tcp-socket.o)
                                                  contiki-cc2538dk.a(mqtt.o)
tcp_socket_connect                                contiki-cc2538dk.a(tcp-socket.o)
                                                  contiki-cc2538dk.a(mqtt.o)
tcp_socket_listen                                 contiki-cc2538dk.a(tcp-socket.o)
tcp_socket_max_sendlen                            contiki-cc2538dk.a(tcp-socket.o)
tcp_socket_process                                contiki-cc2538dk.a(tcp-socket.o)
tcp_socket_register                               contiki-cc2538dk.a(tcp-socket.o)
                                                  contiki-cc2538dk.a(mqtt.o)
tcp_socket_send                                   contiki-cc2538dk.a(tcp-socket.o)
                                                  contiki-cc2538dk.a(mqtt.o)
tcp_socket_send_str                               contiki-cc2538dk.a(tcp-socket.o)
tcp_socket_unlisten                               contiki-cc2538dk.a(tcp-socket.o)
tcp_socket_unregister                             contiki-cc2538dk.a(tcp-socket.o)
                                                  contiki-cc2538dk.a(mqtt.o)
tcp_unlisten                                      contiki-cc2538dk.a(tcpip.o)
                                                  contiki-cc2538dk.a(tcp-socket.o)
tcpip_event                                       contiki-cc2538dk.a(tcp-socket.o)
                                                  contiki-cc2538dk.a(tcpip.o)
tcpip_icmp6_call                                  contiki-cc2538dk.a(tcpip.o)
                                                  contiki-cc2538dk.a(uip6.o)
tcpip_icmp6_event                                 contiki-cc2538dk.a(tcpip.o)
tcpip_input                                       contiki-cc2538dk.a(tcpip.o)
                                                  contiki-cc2538dk.a(sicslowpan.o)
tcpip_ipv6_output                                 contiki-cc2538dk.a(tcpip.o)
                                                  contiki-cc2538dk.a(uip-icmp6.o)
tcpip_output                                      contiki-cc2538dk.a(tcpip.o)
tcpip_poll_tcp                                    contiki-cc2538dk.a(tcpip.o)
tcpip_poll_udp                                    contiki-cc2538dk.a(tcpip.o)
tcpip_process                                     contiki-cc2538dk.a(tcpip.o)
                                                  contiki-cc2538dk.a(contiki-main.o)
tcpip_set_outputfunc                              contiki-cc2538dk.a(tcpip.o)
                                                  contiki-cc2538dk.a(sicslowpan.o)
tcpip_uipcall                                     contiki-cc2538dk.a(tcpip.o)
                                                  contiki-cc2538dk.a(uip6.o)
timer_expired                                     contiki-cc2538dk.a(timer.o)
                                                  contiki-cc2538dk.a(sicslowpan.o)
                                                  contiki-cc2538dk.a(etimer.o)
                                                  contiki-cc2538dk.a(button-sensor.o)
                                                  contiki-cc2538dk.a(mqtt.o)
                                                  mqtt-demo.co
timer_remaining                                   contiki-cc2538dk.a(timer.o)
timer_reset                                       contiki-cc2538dk.a(timer.o)
                                                  contiki-cc2538dk.a(etimer.o)
timer_restart                                     contiki-cc2538dk.a(timer.o)
                                                  contiki-cc2538dk.a(etimer.o)
timer_set                                         contiki-cc2538dk.a(timer.o)
                                                  contiki-cc2538dk.a(sicslowpan.o)
                                                  contiki-cc2538dk.a(etimer.o)
                                                  contiki-cc2538dk.a(button-sensor.o)
                                                  contiki-cc2538dk.a(mqtt.o)
                                                  mqtt-demo.co
uart0_input                                       mqtt-demo.co
uart0_isr                                         contiki-cc2538dk.a(uart.o)
                                                  obj_cc2538dk/startup-gcc.o
uart0_send                                        mqtt-demo.co
uart1_isr                                         contiki-cc2538dk.a(uart.o)
                                                  obj_cc2538dk/startup-gcc.o
uart_init                                         contiki-cc2538dk.a(uart.o)
                                                  contiki-cc2538dk.a(contiki-main.o)
uart_response_process                             mqtt-demo.co
uart_set_input                                    contiki-cc2538dk.a(uart.o)
                                                  contiki-cc2538dk.a(contiki-main.o)
                                                  mqtt-demo.co
uart_write_byte                                   contiki-cc2538dk.a(uart.o)
                                                  contiki-cc2538dk.a(dbg.o)
                                                  mqtt-demo.co
udma_channel_disable                              contiki-cc2538dk.a(udma.o)
udma_channel_enable                               contiki-cc2538dk.a(udma.o)
                                                  contiki-cc2538dk.a(cc2538-rf.o)
udma_channel_get_mode                             contiki-cc2538dk.a(udma.o)
                                                  contiki-cc2538dk.a(cc2538-rf.o)
udma_channel_mask_clr                             contiki-cc2538dk.a(udma.o)
udma_channel_mask_set                             contiki-cc2538dk.a(udma.o)
                                                  contiki-cc2538dk.a(cc2538-rf.o)
udma_channel_prio_set_default                     contiki-cc2538dk.a(udma.o)
udma_channel_prio_set_high                        contiki-cc2538dk.a(udma.o)
udma_channel_sw_request                           contiki-cc2538dk.a(udma.o)
                                                  contiki-cc2538dk.a(cc2538-rf.o)
udma_channel_use_alternate                        contiki-cc2538dk.a(udma.o)
udma_channel_use_burst                            contiki-cc2538dk.a(udma.o)
udma_channel_use_primary                          contiki-cc2538dk.a(udma.o)
udma_channel_use_single                           contiki-cc2538dk.a(udma.o)
udma_err_isr                                      contiki-cc2538dk.a(udma.o)
                                                  obj_cc2538dk/startup-gcc.o
udma_init                                         contiki-cc2538dk.a(udma.o)
                                                  contiki-cc2538dk.a(contiki-main.o)
udma_isr                                          contiki-cc2538dk.a(udma.o)
                                                  obj_cc2538dk/startup-gcc.o
udma_set_channel_assignment                       contiki-cc2538dk.a(udma.o)
udma_set_channel_control_word                     contiki-cc2538dk.a(udma.o)
                                                  contiki-cc2538dk.a(cc2538-rf.o)
udma_set_channel_dst                              contiki-cc2538dk.a(udma.o)
                                                  contiki-cc2538dk.a(cc2538-rf.o)
udma_set_channel_src                              contiki-cc2538dk.a(udma.o)
                                                  contiki-cc2538dk.a(cc2538-rf.o)
udp_attach                                        contiki-cc2538dk.a(tcpip.o)
udp_broadcast_new                                 contiki-cc2538dk.a(tcpip.o)
udp_new                                           contiki-cc2538dk.a(tcpip.o)
uip_acc32                                         contiki-cc2538dk.a(uip6.o)
uip_add32                                         contiki-cc2538dk.a(uip6.o)
uip_aligned_buf                                   contiki-cc2538dk.a(rpl-ext-header.)
                                                  contiki-cc2538dk.a(rpl-icmp6.o)
                                                  contiki-cc2538dk.a(tcpip.o)
                                                  contiki-cc2538dk.a(uip-nd6.o)
                                                  contiki-cc2538dk.a(uip-icmp6.o)
                                                  contiki-cc2538dk.a(uip6.o)
                                                  contiki-cc2538dk.a(sicslowpan.o)
uip_appdata                                       contiki-cc2538dk.a(tcp-socket.o)
                                                  contiki-cc2538dk.a(uip6.o)
uip_chksum                                        contiki-cc2538dk.a(uip6.o)
uip_conn                                          contiki-cc2538dk.a(tcp-socket.o)
                                                  contiki-cc2538dk.a(tcpip.o)
                                                  contiki-cc2538dk.a(uip6.o)
uip_connect                                       contiki-cc2538dk.a(uip6.o)
                                                  contiki-cc2538dk.a(tcpip.o)
uip_conns                                         contiki-cc2538dk.a(tcpip.o)
                                                  contiki-cc2538dk.a(uip6.o)
uip_debug_ipaddr_print                            contiki-cc2538dk.a(uip-debug.o)
                                                  contiki-cc2538dk.a(uip-ds6-route.o)
uip_debug_lladdr_print                            contiki-cc2538dk.a(uip-debug.o)
uip_ds6_aaddr_add                                 contiki-cc2538dk.a(uip-ds6.o)
uip_ds6_aaddr_lookup                              contiki-cc2538dk.a(uip-ds6.o)
uip_ds6_aaddr_rm                                  contiki-cc2538dk.a(uip-ds6.o)
uip_ds6_addr_add                                  contiki-cc2538dk.a(uip-ds6.o)
                                                  contiki-cc2538dk.a(rpl-dag.o)
uip_ds6_addr_lookup                               contiki-cc2538dk.a(uip-ds6.o)
                                                  contiki-cc2538dk.a(rpl-dag.o)
                                                  contiki-cc2538dk.a(tcpip.o)
                                                  contiki-cc2538dk.a(uip-nd6.o)
                                                  contiki-cc2538dk.a(uip6.o)
uip_ds6_addr_rm                                   contiki-cc2538dk.a(uip-ds6.o)
                                                  contiki-cc2538dk.a(rpl-dag.o)
uip_ds6_addr_size                                 contiki-cc2538dk.a(uip-ds6.o)
uip_ds6_compute_reachable_time                    contiki-cc2538dk.a(uip-ds6.o)
uip_ds6_defrt_add                                 contiki-cc2538dk.a(uip-ds6-route.o)
                                                  contiki-cc2538dk.a(rpl-dag.o)
uip_ds6_defrt_choose                              contiki-cc2538dk.a(uip-ds6-route.o)
                                                  contiki-cc2538dk.a(tcpip.o)
                                                  mqtt-demo.co
uip_ds6_defrt_lookup                              contiki-cc2538dk.a(uip-ds6-route.o)
                                                  contiki-cc2538dk.a(uip-nd6.o)
                                                  contiki-cc2538dk.a(uip-ds6-nbr.o)
uip_ds6_defrt_periodic                            contiki-cc2538dk.a(uip-ds6-route.o)
                                                  contiki-cc2538dk.a(uip-ds6.o)
uip_ds6_defrt_rm                                  contiki-cc2538dk.a(uip-ds6-route.o)
                                                  contiki-cc2538dk.a(rpl-dag.o)
                                                  contiki-cc2538dk.a(uip-nd6.o)
                                                  contiki-cc2538dk.a(uip-ds6-nbr.o)
uip_ds6_get_global                                contiki-cc2538dk.a(uip-ds6.o)
                                                  mqtt-demo.co
uip_ds6_get_least_lifetime_neighbor               contiki-cc2538dk.a(uip-ds6-nbr.o)
uip_ds6_get_link_local                            contiki-cc2538dk.a(uip-ds6.o)
                                                  contiki-cc2538dk.a(rpl-timers.o)
uip_ds6_if                                        contiki-cc2538dk.a(rpl-icmp6.o)
                                                  contiki-cc2538dk.a(tcpip.o)
                                                  contiki-cc2538dk.a(uip-nd6.o)
                                                  contiki-cc2538dk.a(uip-icmp6.o)
                                                  contiki-cc2538dk.a(uip-ds6-nbr.o)
                                                  contiki-cc2538dk.a(uip-ds6.o)
                                                  contiki-cc2538dk.a(uip6.o)
uip_ds6_init                                      contiki-cc2538dk.a(uip-ds6.o)
                                                  contiki-cc2538dk.a(uip6.o)
uip_ds6_is_addr_onlink                            contiki-cc2538dk.a(uip-ds6.o)
                                                  contiki-cc2538dk.a(tcpip.o)
                                                  contiki-cc2538dk.a(uip6.o)
uip_ds6_link_neighbor_callback                    contiki-cc2538dk.a(uip-ds6-nbr.o)
                                                  contiki-cc2538dk.a(sicslowpan.o)
uip_ds6_list_loop                                 contiki-cc2538dk.a(uip-ds6.o)
uip_ds6_maddr_add                                 contiki-cc2538dk.a(uip-ds6.o)
                                                  contiki-cc2538dk.a(rpl.o)
uip_ds6_maddr_lookup                              contiki-cc2538dk.a(uip-ds6.o)
                                                  contiki-cc2538dk.a(uip6.o)
uip_ds6_maddr_rm                                  contiki-cc2538dk.a(uip-ds6.o)
uip_ds6_nbr_add                                   contiki-cc2538dk.a(uip-ds6-nbr.o)
                                                  contiki-cc2538dk.a(rpl-icmp6.o)
                                                  contiki-cc2538dk.a(tcpip.o)
                                                  contiki-cc2538dk.a(uip-nd6.o)
uip_ds6_nbr_get_ipaddr                            contiki-cc2538dk.a(uip-ds6-nbr.o)
uip_ds6_nbr_get_ll                                contiki-cc2538dk.a(uip-ds6-nbr.o)
                                                  contiki-cc2538dk.a(rpl-dag.o)
                                                  contiki-cc2538dk.a(tcpip.o)
                                                  contiki-cc2538dk.a(uip-nd6.o)
uip_ds6_nbr_ipaddr_from_lladdr                    contiki-cc2538dk.a(uip-ds6-nbr.o)
                                                  contiki-cc2538dk.a(rpl-dag.o)
                                                  contiki-cc2538dk.a(uip-ds6-route.o)
uip_ds6_nbr_ll_lookup                             contiki-cc2538dk.a(uip-ds6-nbr.o)
uip_ds6_nbr_lladdr_from_ipaddr                    contiki-cc2538dk.a(uip-ds6-nbr.o)
                                                  contiki-cc2538dk.a(rpl-dag.o)
                                                  contiki-cc2538dk.a(uip-ds6-route.o)
uip_ds6_nbr_lookup                                contiki-cc2538dk.a(uip-ds6-nbr.o)
                                                  contiki-cc2538dk.a(rpl-icmp6.o)
                                                  contiki-cc2538dk.a(rpl-dag.o)
                                                  contiki-cc2538dk.a(tcpip.o)
                                                  contiki-cc2538dk.a(uip-nd6.o)
                                                  contiki-cc2538dk.a(uip-ds6-route.o)
uip_ds6_nbr_num                                   contiki-cc2538dk.a(uip-ds6-nbr.o)
                                                  contiki-cc2538dk.a(rpl-dag.o)
uip_ds6_nbr_rm                                    contiki-cc2538dk.a(uip-ds6-nbr.o)
uip_ds6_neighbor_periodic                         contiki-cc2538dk.a(uip-ds6-nbr.o)
                                                  contiki-cc2538dk.a(uip-ds6.o)
uip_ds6_neighbors_init                            contiki-cc2538dk.a(uip-ds6-nbr.o)
                                                  contiki-cc2538dk.a(uip-ds6.o)
uip_ds6_netif_addr_list_offset                    contiki-cc2538dk.a(uip-ds6.o)
uip_ds6_notification_add                          contiki-cc2538dk.a(uip-ds6-route.o)
uip_ds6_notification_rm                           contiki-cc2538dk.a(uip-ds6-route.o)
uip_ds6_periodic                                  contiki-cc2538dk.a(uip-ds6.o)
                                                  contiki-cc2538dk.a(tcpip.o)
uip_ds6_prefix_add                                contiki-cc2538dk.a(uip-ds6.o)
uip_ds6_prefix_list                               contiki-cc2538dk.a(uip-ds6.o)
uip_ds6_prefix_lookup                             contiki-cc2538dk.a(uip-ds6.o)
uip_ds6_prefix_rm                                 contiki-cc2538dk.a(uip-ds6.o)
uip_ds6_route_add                                 contiki-cc2538dk.a(uip-ds6-route.o)
                                                  contiki-cc2538dk.a(rpl.o)
uip_ds6_route_head                                contiki-cc2538dk.a(uip-ds6-route.o)
                                                  contiki-cc2538dk.a(rpl.o)
uip_ds6_route_init                                contiki-cc2538dk.a(uip-ds6-route.o)
                                                  contiki-cc2538dk.a(uip-ds6.o)
uip_ds6_route_lookup                              contiki-cc2538dk.a(uip-ds6-route.o)
                                                  contiki-cc2538dk.a(rpl-ext-header.)
                                                  contiki-cc2538dk.a(rpl-icmp6.o)
                                                  contiki-cc2538dk.a(tcpip.o)
uip_ds6_route_next                                contiki-cc2538dk.a(uip-ds6-route.o)
                                                  contiki-cc2538dk.a(rpl.o)
uip_ds6_route_nexthop                             contiki-cc2538dk.a(uip-ds6-route.o)
                                                  contiki-cc2538dk.a(rpl-icmp6.o)
                                                  contiki-cc2538dk.a(rpl.o)
                                                  contiki-cc2538dk.a(tcpip.o)
uip_ds6_route_num_routes                          contiki-cc2538dk.a(uip-ds6-route.o)
uip_ds6_route_rm                                  contiki-cc2538dk.a(uip-ds6-route.o)
                                                  contiki-cc2538dk.a(rpl-ext-header.)
                                                  contiki-cc2538dk.a(rpl.o)
                                                  contiki-cc2538dk.a(tcpip.o)
uip_ds6_route_rm_by_nexthop                       contiki-cc2538dk.a(uip-ds6-route.o)
uip_ds6_select_src                                contiki-cc2538dk.a(uip-ds6.o)
                                                  contiki-cc2538dk.a(uip-nd6.o)
                                                  contiki-cc2538dk.a(uip-icmp6.o)
                                                  contiki-cc2538dk.a(uip6.o)
uip_ds6_set_addr_iid                              contiki-cc2538dk.a(uip-ds6.o)
                                                  contiki-cc2538dk.a(rpl-dag.o)
                                                  contiki-cc2538dk.a(rpl.o)
                                                  contiki-cc2538dk.a(sicslowpan.o)
uip_ds6_timer_periodic                            contiki-cc2538dk.a(tcpip.o)
                                                  contiki-cc2538dk.a(uip-ds6.o)
uip_ds6_timer_ra                                  contiki-cc2538dk.a(uip-ds6.o)
uip_ext_bitmap                                    contiki-cc2538dk.a(uip6.o)
uip_ext_len                                       contiki-cc2538dk.a(uip6.o)
                                                  contiki-cc2538dk.a(rpl-ext-header.)
                                                  contiki-cc2538dk.a(rpl-icmp6.o)
                                                  contiki-cc2538dk.a(tcpip.o)
                                                  contiki-cc2538dk.a(uip-nd6.o)
                                                  contiki-cc2538dk.a(uip-icmp6.o)
uip_ext_opt_offset                                contiki-cc2538dk.a(uip6.o)
uip_flags                                         contiki-cc2538dk.a(tcp-socket.o)
                                                  contiki-cc2538dk.a(tcpip.o)
                                                  contiki-cc2538dk.a(uip6.o)
uip_htonl                                         contiki-cc2538dk.a(uip6.o)
                                                  contiki-cc2538dk.a(uip-icmp6.o)
uip_htons                                         contiki-cc2538dk.a(uip6.o)
                                                  contiki-cc2538dk.a(tcp-socket.o)
uip_icmp6_conns                                   contiki-cc2538dk.a(tcpip.o)
                                                  contiki-cc2538dk.a(uip6.o)
uip_icmp6_echo_reply_callback_add                 contiki-cc2538dk.a(uip-icmp6.o)
                                                  mqtt-demo.co
uip_icmp6_echo_reply_callback_rm                  contiki-cc2538dk.a(uip-icmp6.o)
uip_icmp6_error_output                            contiki-cc2538dk.a(uip-icmp6.o)
                                                  contiki-cc2538dk.a(uip6.o)
uip_icmp6_init                                    contiki-cc2538dk.a(uip-icmp6.o)
                                                  contiki-cc2538dk.a(uip6.o)
uip_icmp6_input                                   contiki-cc2538dk.a(uip-icmp6.o)
                                                  contiki-cc2538dk.a(uip6.o)
uip_icmp6_register_input_handler                  contiki-cc2538dk.a(uip-icmp6.o)
                                                  contiki-cc2538dk.a(rpl-icmp6.o)
                                                  contiki-cc2538dk.a(uip-nd6.o)
uip_icmp6_send                                    contiki-cc2538dk.a(uip-icmp6.o)
                                                  contiki-cc2538dk.a(rpl-icmp6.o)
                                                  mqtt-demo.co
uip_icmp6chksum                                   contiki-cc2538dk.a(uip6.o)
                                                  contiki-cc2538dk.a(uip-nd6.o)
                                                  contiki-cc2538dk.a(uip-icmp6.o)
uip_init                                          contiki-cc2538dk.a(uip6.o)
                                                  contiki-cc2538dk.a(tcpip.o)
uip_ipchksum                                      contiki-cc2538dk.a(uip6.o)
uip_len                                           contiki-cc2538dk.a(rpl-ext-header.)
                                                  contiki-cc2538dk.a(rpl-icmp6.o)
                                                  contiki-cc2538dk.a(tcp-socket.o)
                                                  contiki-cc2538dk.a(tcpip.o)
                                                  contiki-cc2538dk.a(uip-nd6.o)
                                                  contiki-cc2538dk.a(uip-icmp6.o)
                                                  contiki-cc2538dk.a(uip-ds6-nbr.o)
                                                  contiki-cc2538dk.a(uip6.o)
                                                  contiki-cc2538dk.a(sicslowpan.o)
uip_listen                                        contiki-cc2538dk.a(uip6.o)
                                                  contiki-cc2538dk.a(tcpip.o)
uip_listenports                                   contiki-cc2538dk.a(uip6.o)
uip_lladdr                                        contiki-cc2538dk.a(rpl-dag.o)
                                                  contiki-cc2538dk.a(uip-nd6.o)
                                                  contiki-cc2538dk.a(uip-ds6.o)
                                                  contiki-cc2538dk.a(uip6.o)
                                                  contiki-cc2538dk.a(sicslowpan.o)
                                                  contiki-cc2538dk.a(contiki-main.o)
uip_nd6_init                                      contiki-cc2538dk.a(uip-nd6.o)
                                                  contiki-cc2538dk.a(uip6.o)
uip_nd6_ns_output                                 contiki-cc2538dk.a(uip-nd6.o)
                                                  contiki-cc2538dk.a(tcpip.o)
                                                  contiki-cc2538dk.a(uip-ds6-nbr.o)
uip_next_hdr                                      contiki-cc2538dk.a(uip6.o)
uip_process                                       contiki-cc2538dk.a(uip6.o)
                                                  contiki-cc2538dk.a(tcpip.o)
uip_sappdata                                      contiki-cc2538dk.a(uip6.o)
uip_send                                          contiki-cc2538dk.a(uip6.o)
                                                  contiki-cc2538dk.a(tcp-socket.o)
uip_slen                                          contiki-cc2538dk.a(uip6.o)
uip_tcpchksum                                     contiki-cc2538dk.a(uip6.o)
uip_udp_conn                                      contiki-cc2538dk.a(tcpip.o)
                                                  contiki-cc2538dk.a(uip6.o)
uip_udp_conns                                     contiki-cc2538dk.a(tcpip.o)
                                                  contiki-cc2538dk.a(uip6.o)
uip_udp_new                                       contiki-cc2538dk.a(uip6.o)
                                                  contiki-cc2538dk.a(tcpip.o)
uip_udpchksum                                     contiki-cc2538dk.a(uip6.o)
uip_unlisten                                      contiki-cc2538dk.a(uip6.o)
                                                  contiki-cc2538dk.a(tcpip.o)
uiplib_ip4addrconv                                contiki-cc2538dk.a(uiplib.o)
uiplib_ip6addrconv                                contiki-cc2538dk.a(uiplib.o)
                                                  contiki-cc2538dk.a(mqtt.o)
unc_ctxconf                                       contiki-cc2538dk.a(sicslowpan.o)
unc_llconf                                        contiki-cc2538dk.a(sicslowpan.o)
unc_mxconf                                        contiki-cc2538dk.a(sicslowpan.o)
usb_isr                                           obj_cc2538dk/startup-gcc.o
vdd3_sensor                                       contiki-cc2538dk.a(vdd3-sensor.o)
                                                  contiki-cc2538dk.a(smartrf-sensors)
                                                  mqtt-demo.co
vectors                                           obj_cc2538dk/startup-gcc.o
vsnprintf                                         contiki-cc2538dk.a(dbg-snprintf.o)
watchdog_init                                     contiki-cc2538dk.a(watchdog.o)
                                                  contiki-cc2538dk.a(contiki-main.o)
watchdog_periodic                                 contiki-cc2538dk.a(watchdog.o)
                                                  contiki-cc2538dk.a(aes-ccm.o)
                                                  contiki-cc2538dk.a(contikimac.o)
                                                  contiki-cc2538dk.a(sicslowpan.o)
                                                  contiki-cc2538dk.a(contiki-main.o)
watchdog_reboot                                   contiki-cc2538dk.a(watchdog.o)
watchdog_start                                    contiki-cc2538dk.a(watchdog.o)
                                                  contiki-cc2538dk.a(contiki-main.o)
